TN:
SF:/home/trialshock/Scrivania/Uni/LASD_24-25/secondaConsegna/container/container.hpp
FN:28,28,_ZNK4lasd9Container5EmptyEv
FN:29,29,_ZNK4lasd9Container4SizeEv
FN:70,70,_ZN4lasd18ResizableContainer5ClearEv
FNDA:66,_ZNK4lasd9Container5EmptyEv
FNDA:208,_ZNK4lasd9Container4SizeEv
FNDA:0,_ZN4lasd18ResizableContainer5ClearEv
FNF:3
FNH:2
DA:12,302
DA:28,144
DA:29,857
DA:32,163
DA:35,199
DA:51,175
DA:54,177
DA:70,0
LF:8
LH:7
end_of_record
TN:
SF:/home/trialshock/Scrivania/Uni/LASD_24-25/secondaConsegna/container/dictionary.cpp
FN:10,14,_ZN4lasd19DictionaryContainerINSt7__cxx1112basic_stringIcSt11char_traitsIcESaIcEEEE9InsertAllEONS_17MappableContainerIS6_EE
FN:10,14,_ZN4lasd19DictionaryContainerIdE9InsertAllEONS_17MappableContainerIdEE
FN:10,14,_ZN4lasd19DictionaryContainerIiE9InsertAllEONS_17MappableContainerIiEE
FN:17,21,_ZN4lasd19DictionaryContainerINSt7__cxx1112basic_stringIcSt11char_traitsIcESaIcEEEE9RemoveAllERKNS_20TraversableContainerIS6_EE
FN:17,21,_ZN4lasd19DictionaryContainerIdE9RemoveAllERKNS_20TraversableContainerIdEE
FN:17,21,_ZN4lasd19DictionaryContainerIiE9RemoveAllERKNS_20TraversableContainerIiEE
FN:24,28,_ZN4lasd19DictionaryContainerINSt7__cxx1112basic_stringIcSt11char_traitsIcESaIcEEEE10InsertSomeERKNS_20TraversableContainerIS6_EE
FN:24,28,_ZN4lasd19DictionaryContainerIdE10InsertSomeERKNS_20TraversableContainerIdEE
FN:24,28,_ZN4lasd19DictionaryContainerIiE10InsertSomeERKNS_20TraversableContainerIiEE
FN:3,7,_ZN4lasd19DictionaryContainerINSt7__cxx1112basic_stringIcSt11char_traitsIcESaIcEEEE9InsertAllERKNS_20TraversableContainerIS6_EE
FN:3,7,_ZN4lasd19DictionaryContainerIdE9InsertAllERKNS_20TraversableContainerIdEE
FN:3,7,_ZN4lasd19DictionaryContainerIiE9InsertAllERKNS_20TraversableContainerIiEE
FN:31,35,_ZN4lasd19DictionaryContainerINSt7__cxx1112basic_stringIcSt11char_traitsIcESaIcEEEE10InsertSomeEONS_17MappableContainerIS6_EE
FN:31,35,_ZN4lasd19DictionaryContainerIdE10InsertSomeEONS_17MappableContainerIdEE
FN:31,35,_ZN4lasd19DictionaryContainerIiE10InsertSomeEONS_17MappableContainerIiEE
FN:38,42,_ZN4lasd19DictionaryContainerINSt7__cxx1112basic_stringIcSt11char_traitsIcESaIcEEEE10RemoveSomeERKNS_20TraversableContainerIS6_EE
FN:38,42,_ZN4lasd19DictionaryContainerIdE10RemoveSomeERKNS_20TraversableContainerIdEE
FN:38,42,_ZN4lasd19DictionaryContainerIiE10RemoveSomeERKNS_20TraversableContainerIiEE
FNDA:0,_ZN4lasd19DictionaryContainerINSt7__cxx1112basic_stringIcSt11char_traitsIcESaIcEEEE9InsertAllEONS_17MappableContainerIS6_EE
FNDA:0,_ZN4lasd19DictionaryContainerIdE9InsertAllEONS_17MappableContainerIdEE
FNDA:0,_ZN4lasd19DictionaryContainerIiE9InsertAllEONS_17MappableContainerIiEE
FNDA:0,_ZN4lasd19DictionaryContainerINSt7__cxx1112basic_stringIcSt11char_traitsIcESaIcEEEE9RemoveAllERKNS_20TraversableContainerIS6_EE
FNDA:0,_ZN4lasd19DictionaryContainerIdE9RemoveAllERKNS_20TraversableContainerIdEE
FNDA:1,_ZN4lasd19DictionaryContainerIiE9RemoveAllERKNS_20TraversableContainerIiEE
FNDA:0,_ZN4lasd19DictionaryContainerINSt7__cxx1112basic_stringIcSt11char_traitsIcESaIcEEEE10InsertSomeERKNS_20TraversableContainerIS6_EE
FNDA:0,_ZN4lasd19DictionaryContainerIdE10InsertSomeERKNS_20TraversableContainerIdEE
FNDA:1,_ZN4lasd19DictionaryContainerIiE10InsertSomeERKNS_20TraversableContainerIiEE
FNDA:0,_ZN4lasd19DictionaryContainerINSt7__cxx1112basic_stringIcSt11char_traitsIcESaIcEEEE9InsertAllERKNS_20TraversableContainerIS6_EE
FNDA:0,_ZN4lasd19DictionaryContainerIdE9InsertAllERKNS_20TraversableContainerIdEE
FNDA:4,_ZN4lasd19DictionaryContainerIiE9InsertAllERKNS_20TraversableContainerIiEE
FNDA:0,_ZN4lasd19DictionaryContainerINSt7__cxx1112basic_stringIcSt11char_traitsIcESaIcEEEE10InsertSomeEONS_17MappableContainerIS6_EE
FNDA:0,_ZN4lasd19DictionaryContainerIdE10InsertSomeEONS_17MappableContainerIdEE
FNDA:0,_ZN4lasd19DictionaryContainerIiE10InsertSomeEONS_17MappableContainerIiEE
FNDA:0,_ZN4lasd19DictionaryContainerINSt7__cxx1112basic_stringIcSt11char_traitsIcESaIcEEEE10RemoveSomeERKNS_20TraversableContainerIS6_EE
FNDA:0,_ZN4lasd19DictionaryContainerIdE10RemoveSomeERKNS_20TraversableContainerIdEE
FNDA:0,_ZN4lasd19DictionaryContainerIiE10RemoveSomeERKNS_20TraversableContainerIiEE
FNF:18
FNH:3
DA:3,4
DA:4,4
DA:5,27
DA:6,4
DA:10,0
DA:11,0
DA:12,0
DA:13,0
DA:17,1
DA:18,1
DA:19,5
DA:20,1
DA:24,1
DA:25,1
DA:26,7
DA:27,1
DA:31,0
DA:32,0
DA:33,0
DA:34,0
DA:38,0
DA:39,0
DA:40,0
DA:41,0
LF:24
LH:12
end_of_record
TN:
SF:/home/trialshock/Scrivania/Uni/LASD_24-25/secondaConsegna/container/dictionary.hpp
FNF:0
FNH:0
DA:10,73
DA:13,0
DA:40,73
DA:43,0
LF:4
LH:2
end_of_record
TN:
SF:/home/trialshock/Scrivania/Uni/LASD_24-25/secondaConsegna/container/linear.cpp
FN:105,107,_ZN4lasd23SortableLinearContainerINSt7__cxx1112basic_stringIcSt11char_traitsIcESaIcEEEE4SortEv
FN:105,107,_ZN4lasd23SortableLinearContainerIdE4SortEv
FN:105,107,_ZN4lasd23SortableLinearContainerIiE4SortEv
FN:18,20,_ZNK4lasd15LinearContainerINSt7__cxx1112basic_stringIcSt11char_traitsIcESaIcEEEE5FrontEv
FN:18,20,_ZNK4lasd15LinearContainerIdE5FrontEv
FN:18,20,_ZNK4lasd15LinearContainerIiE5FrontEv
FN:23,25,_ZNK4lasd15LinearContainerINSt7__cxx1112basic_stringIcSt11char_traitsIcESaIcEEEE4BackEv
FN:23,25,_ZNK4lasd15LinearContainerIdE4BackEv
FN:23,25,_ZNK4lasd15LinearContainerIiE4BackEv
FN:28,30,_ZNK4lasd15LinearContainerINSt7__cxx1112basic_stringIcSt11char_traitsIcESaIcEEEE8TraverseESt8functionIFvRKS6_EE
FN:28,30,_ZNK4lasd15LinearContainerIdE8TraverseESt8functionIFvRKdEE
FN:28,30,_ZNK4lasd15LinearContainerIiE8TraverseESt8functionIFvRKiEE
FN:3,10,_ZNK4lasd15LinearContainerINSt7__cxx1112basic_stringIcSt11char_traitsIcESaIcEEEEeqERKS7_
FN:3,10,_ZNK4lasd15LinearContainerIdEeqERKS1_
FN:3,10,_ZNK4lasd15LinearContainerIiEeqERKS1_
FN:33,37,_ZNK4lasd15LinearContainerINSt7__cxx1112basic_stringIcSt11char_traitsIcESaIcEEEE16PreOrderTraverseESt8functionIFvRKS6_EE
FN:33,37,_ZNK4lasd15LinearContainerIdE16PreOrderTraverseESt8functionIFvRKdEE
FN:33,37,_ZNK4lasd15LinearContainerIiE16PreOrderTraverseESt8functionIFvRKiEE
FN:40,45,_ZNK4lasd15LinearContainerINSt7__cxx1112basic_stringIcSt11char_traitsIcESaIcEEEE17PostOrderTraverseESt8functionIFvRKS6_EE
FN:40,45,_ZNK4lasd15LinearContainerIdE17PostOrderTraverseESt8functionIFvRKdEE
FN:40,45,_ZNK4lasd15LinearContainerIiE17PostOrderTraverseESt8functionIFvRKiEE
FN:48,50,_ZN4lasd22MutableLinearContainerINSt7__cxx1112basic_stringIcSt11char_traitsIcESaIcEEEE5FrontEv
FN:48,50,_ZN4lasd22MutableLinearContainerIdE5FrontEv
FN:48,50,_ZN4lasd22MutableLinearContainerIiE5FrontEv
FN:53,55,_ZN4lasd22MutableLinearContainerINSt7__cxx1112basic_stringIcSt11char_traitsIcESaIcEEEE4BackEv
FN:53,55,_ZN4lasd22MutableLinearContainerIdE4BackEv
FN:53,55,_ZN4lasd22MutableLinearContainerIiE4BackEv
FN:58,60,_ZN4lasd22MutableLinearContainerINSt7__cxx1112basic_stringIcSt11char_traitsIcESaIcEEEE3MapESt8functionIFvRS6_EE
FN:58,60,_ZN4lasd22MutableLinearContainerIdE3MapESt8functionIFvRdEE
FN:58,60,_ZN4lasd22MutableLinearContainerIiE3MapESt8functionIFvRiEE
FN:63,67,_ZN4lasd22MutableLinearContainerINSt7__cxx1112basic_stringIcSt11char_traitsIcESaIcEEEE11PreOrderMapESt8functionIFvRS6_EE
FN:63,67,_ZN4lasd22MutableLinearContainerIdE11PreOrderMapESt8functionIFvRdEE
FN:63,67,_ZN4lasd22MutableLinearContainerIiE11PreOrderMapESt8functionIFvRiEE
FN:70,75,_ZN4lasd22MutableLinearContainerINSt7__cxx1112basic_stringIcSt11char_traitsIcESaIcEEEE12PostOrderMapESt8functionIFvRS6_EE
FN:70,75,_ZN4lasd22MutableLinearContainerIdE12PostOrderMapESt8functionIFvRdEE
FN:70,75,_ZN4lasd22MutableLinearContainerIiE12PostOrderMapESt8functionIFvRiEE
FN:78,84,_ZN4lasd23SortableLinearContainerINSt7__cxx1112basic_stringIcSt11char_traitsIcESaIcEEEE9QuickSortEmm
FN:78,84,_ZN4lasd23SortableLinearContainerIdE9QuickSortEmm
FN:78,84,_ZN4lasd23SortableLinearContainerIiE9QuickSortEmm
FN:87,102,_ZN4lasd23SortableLinearContainerINSt7__cxx1112basic_stringIcSt11char_traitsIcESaIcEEEE9PartitionEmm
FN:87,102,_ZN4lasd23SortableLinearContainerIdE9PartitionEmm
FN:87,102,_ZN4lasd23SortableLinearContainerIiE9PartitionEmm
FNDA:0,_ZN4lasd23SortableLinearContainerINSt7__cxx1112basic_stringIcSt11char_traitsIcESaIcEEEE4SortEv
FNDA:0,_ZN4lasd23SortableLinearContainerIdE4SortEv
FNDA:0,_ZN4lasd23SortableLinearContainerIiE4SortEv
FNDA:0,_ZNK4lasd15LinearContainerINSt7__cxx1112basic_stringIcSt11char_traitsIcESaIcEEEE5FrontEv
FNDA:0,_ZNK4lasd15LinearContainerIdE5FrontEv
FNDA:0,_ZNK4lasd15LinearContainerIiE5FrontEv
FNDA:0,_ZNK4lasd15LinearContainerINSt7__cxx1112basic_stringIcSt11char_traitsIcESaIcEEEE4BackEv
FNDA:0,_ZNK4lasd15LinearContainerIdE4BackEv
FNDA:0,_ZNK4lasd15LinearContainerIiE4BackEv
FNDA:8,_ZNK4lasd15LinearContainerINSt7__cxx1112basic_stringIcSt11char_traitsIcESaIcEEEE8TraverseESt8functionIFvRKS6_EE
FNDA:5,_ZNK4lasd15LinearContainerIdE8TraverseESt8functionIFvRKdEE
FNDA:42,_ZNK4lasd15LinearContainerIiE8TraverseESt8functionIFvRKiEE
FNDA:4,_ZNK4lasd15LinearContainerINSt7__cxx1112basic_stringIcSt11char_traitsIcESaIcEEEEeqERKS7_
FNDA:6,_ZNK4lasd15LinearContainerIdEeqERKS1_
FNDA:42,_ZNK4lasd15LinearContainerIiEeqERKS1_
FNDA:64,_ZNK4lasd15LinearContainerINSt7__cxx1112basic_stringIcSt11char_traitsIcESaIcEEEE16PreOrderTraverseESt8functionIFvRKS6_EE
FNDA:33,_ZNK4lasd15LinearContainerIdE16PreOrderTraverseESt8functionIFvRKdEE
FNDA:172,_ZNK4lasd15LinearContainerIiE16PreOrderTraverseESt8functionIFvRKiEE
FNDA:26,_ZNK4lasd15LinearContainerINSt7__cxx1112basic_stringIcSt11char_traitsIcESaIcEEEE17PostOrderTraverseESt8functionIFvRKS6_EE
FNDA:9,_ZNK4lasd15LinearContainerIdE17PostOrderTraverseESt8functionIFvRKdEE
FNDA:47,_ZNK4lasd15LinearContainerIiE17PostOrderTraverseESt8functionIFvRKiEE
FNDA:0,_ZN4lasd22MutableLinearContainerINSt7__cxx1112basic_stringIcSt11char_traitsIcESaIcEEEE5FrontEv
FNDA:0,_ZN4lasd22MutableLinearContainerIdE5FrontEv
FNDA:0,_ZN4lasd22MutableLinearContainerIiE5FrontEv
FNDA:0,_ZN4lasd22MutableLinearContainerINSt7__cxx1112basic_stringIcSt11char_traitsIcESaIcEEEE4BackEv
FNDA:0,_ZN4lasd22MutableLinearContainerIdE4BackEv
FNDA:0,_ZN4lasd22MutableLinearContainerIiE4BackEv
FNDA:2,_ZN4lasd22MutableLinearContainerINSt7__cxx1112basic_stringIcSt11char_traitsIcESaIcEEEE3MapESt8functionIFvRS6_EE
FNDA:1,_ZN4lasd22MutableLinearContainerIdE3MapESt8functionIFvRdEE
FNDA:1,_ZN4lasd22MutableLinearContainerIiE3MapESt8functionIFvRiEE
FNDA:6,_ZN4lasd22MutableLinearContainerINSt7__cxx1112basic_stringIcSt11char_traitsIcESaIcEEEE11PreOrderMapESt8functionIFvRS6_EE
FNDA:1,_ZN4lasd22MutableLinearContainerIdE11PreOrderMapESt8functionIFvRdEE
FNDA:4,_ZN4lasd22MutableLinearContainerIiE11PreOrderMapESt8functionIFvRiEE
FNDA:0,_ZN4lasd22MutableLinearContainerINSt7__cxx1112basic_stringIcSt11char_traitsIcESaIcEEEE12PostOrderMapESt8functionIFvRS6_EE
FNDA:0,_ZN4lasd22MutableLinearContainerIdE12PostOrderMapESt8functionIFvRdEE
FNDA:3,_ZN4lasd22MutableLinearContainerIiE12PostOrderMapESt8functionIFvRiEE
FNDA:2,_ZN4lasd23SortableLinearContainerINSt7__cxx1112basic_stringIcSt11char_traitsIcESaIcEEEE9QuickSortEmm
FNDA:0,_ZN4lasd23SortableLinearContainerIdE9QuickSortEmm
FNDA:8,_ZN4lasd23SortableLinearContainerIiE9QuickSortEmm
FNDA:1,_ZN4lasd23SortableLinearContainerINSt7__cxx1112basic_stringIcSt11char_traitsIcESaIcEEEE9PartitionEmm
FNDA:0,_ZN4lasd23SortableLinearContainerIdE9PartitionEmm
FNDA:6,_ZN4lasd23SortableLinearContainerIiE9PartitionEmm
FNF:42
FNH:23
DA:3,52
DA:4,52
DA:5,324
DA:6,292
DA:14,4
DA:18,0
DA:19,0
DA:23,0
DA:24,0
DA:28,55
DA:29,110
DA:30,55
DA:33,269
DA:34,2191
DA:35,1922
DA:37,269
DA:40,82
DA:41,82
DA:42,781
DA:43,699
DA:45,82
DA:48,0
DA:49,0
DA:53,0
DA:54,0
DA:58,4
DA:59,8
DA:60,4
DA:63,11
DA:64,94
DA:65,83
DA:67,11
DA:70,3
DA:71,3
DA:72,36
DA:73,33
DA:75,3
DA:78,10
DA:79,17
DA:80,7
DA:81,7
DA:82,7
DA:84,10
DA:87,7
DA:88,7
DA:89,7
DA:92,16
DA:93,18
DA:95,15
DA:96,16
DA:97,13
DA:98,6
DA:100,13
DA:101,7
DA:105,0
DA:106,5
DA:107,0
LF:57
LH:47
end_of_record
TN:
SF:/home/trialshock/Scrivania/Uni/LASD_24-25/secondaConsegna/container/linear.hpp
FN:13,13,_ZN4lasd15LinearContainerINSt7__cxx1112basic_stringIcSt11char_traitsIcESaIcEEEED2Ev
FN:13,13,_ZN4lasd15LinearContainerIdED2Ev
FN:13,13,_ZN4lasd15LinearContainerIiED2Ev
FN:48,48,_ZN4lasd22MutableLinearContainerINSt7__cxx1112basic_stringIcSt11char_traitsIcESaIcEEEED2Ev
FN:48,48,_ZN4lasd22MutableLinearContainerIdED2Ev
FN:48,48,_ZN4lasd22MutableLinearContainerIiED2Ev
FN:88,88,_ZN4lasd23SortableLinearContainerINSt7__cxx1112basic_stringIcSt11char_traitsIcESaIcEEEED2Ev
FN:88,88,_ZN4lasd23SortableLinearContainerIdED2Ev
FN:88,88,_ZN4lasd23SortableLinearContainerIiED2Ev
FNDA:73,_ZN4lasd15LinearContainerINSt7__cxx1112basic_stringIcSt11char_traitsIcESaIcEEEED2Ev
FNDA:59,_ZN4lasd15LinearContainerIdED2Ev
FNDA:147,_ZN4lasd15LinearContainerIiED2Ev
FNDA:73,_ZN4lasd22MutableLinearContainerINSt7__cxx1112basic_stringIcSt11char_traitsIcESaIcEEEED2Ev
FNDA:59,_ZN4lasd22MutableLinearContainerIdED2Ev
FNDA:147,_ZN4lasd22MutableLinearContainerIiED2Ev
FNDA:28,_ZN4lasd23SortableLinearContainerINSt7__cxx1112basic_stringIcSt11char_traitsIcESaIcEEEED2Ev
FNDA:20,_ZN4lasd23SortableLinearContainerIdED2Ev
FNDA:38,_ZN4lasd23SortableLinearContainerIiED2Ev
FNF:9
FNH:9
DA:13,279
DA:48,279
DA:88,86
LF:3
LH:3
end_of_record
TN:
SF:/home/trialshock/Scrivania/Uni/LASD_24-25/secondaConsegna/container/mappable.cpp
FN:3,5,_ZN4lasd25PreOrderMappableContainerINSt7__cxx1112basic_stringIcSt11char_traitsIcESaIcEEEE3MapESt8functionIFvRS6_EE
FN:3,5,_ZN4lasd25PreOrderMappableContainerIdE3MapESt8functionIFvRdEE
FN:3,5,_ZN4lasd25PreOrderMappableContainerIiE3MapESt8functionIFvRiEE
FN:8,10,_ZN4lasd26PostOrderMappableContainerINSt7__cxx1112basic_stringIcSt11char_traitsIcESaIcEEEE3MapESt8functionIFvRS6_EE
FN:8,10,_ZN4lasd26PostOrderMappableContainerIdE3MapESt8functionIFvRdEE
FN:8,10,_ZN4lasd26PostOrderMappableContainerIiE3MapESt8functionIFvRiEE
FNDA:0,_ZN4lasd25PreOrderMappableContainerINSt7__cxx1112basic_stringIcSt11char_traitsIcESaIcEEEE3MapESt8functionIFvRS6_EE
FNDA:0,_ZN4lasd25PreOrderMappableContainerIdE3MapESt8functionIFvRdEE
FNDA:0,_ZN4lasd25PreOrderMappableContainerIiE3MapESt8functionIFvRiEE
FNDA:0,_ZN4lasd26PostOrderMappableContainerINSt7__cxx1112basic_stringIcSt11char_traitsIcESaIcEEEE3MapESt8functionIFvRS6_EE
FNDA:0,_ZN4lasd26PostOrderMappableContainerIdE3MapESt8functionIFvRdEE
FNDA:0,_ZN4lasd26PostOrderMappableContainerIiE3MapESt8functionIFvRiEE
FNF:6
FNH:0
DA:3,0
DA:4,0
DA:5,0
DA:8,0
DA:9,0
DA:10,0
LF:6
LH:0
end_of_record
TN:
SF:/home/trialshock/Scrivania/Uni/LASD_24-25/secondaConsegna/container/mappable.hpp
FN:34,34,_ZN4lasd25PreOrderMappableContainerINSt7__cxx1112basic_stringIcSt11char_traitsIcESaIcEEEED2Ev
FN:34,34,_ZN4lasd25PreOrderMappableContainerIdED2Ev
FN:34,34,_ZN4lasd25PreOrderMappableContainerIiED2Ev
FN:59,59,_ZN4lasd26PostOrderMappableContainerINSt7__cxx1112basic_stringIcSt11char_traitsIcESaIcEEEED2Ev
FN:59,59,_ZN4lasd26PostOrderMappableContainerIdED2Ev
FN:59,59,_ZN4lasd26PostOrderMappableContainerIiED2Ev
FNDA:73,_ZN4lasd25PreOrderMappableContainerINSt7__cxx1112basic_stringIcSt11char_traitsIcESaIcEEEED2Ev
FNDA:59,_ZN4lasd25PreOrderMappableContainerIdED2Ev
FNDA:147,_ZN4lasd25PreOrderMappableContainerIiED2Ev
FNDA:73,_ZN4lasd26PostOrderMappableContainerINSt7__cxx1112basic_stringIcSt11char_traitsIcESaIcEEEED2Ev
FNDA:59,_ZN4lasd26PostOrderMappableContainerIdED2Ev
FNDA:147,_ZN4lasd26PostOrderMappableContainerIiED2Ev
FNF:6
FNH:6
DA:9,302
DA:12,279
DA:34,279
DA:59,279
LF:4
LH:4
end_of_record
TN:
SF:/home/trialshock/Scrivania/Uni/LASD_24-25/secondaConsegna/container/testable.hpp
FNF:0
FNH:0
DA:8,302
DA:11,0
LF:2
LH:1
end_of_record
TN:
SF:/home/trialshock/Scrivania/Uni/LASD_24-25/secondaConsegna/container/traversable.cpp
FN:10,14,_ZNK4lasd20TraversableContainerINSt7__cxx1112basic_stringIcSt11char_traitsIcESaIcEEEE6ExistsERKS6_
FN:10,14,_ZNK4lasd20TraversableContainerIdE6ExistsERKd
FN:10,14,_ZNK4lasd20TraversableContainerIiE6ExistsERKi
FN:18,21,_ZNK4lasd28PreOrderTraversableContainerINSt7__cxx1112basic_stringIcSt11char_traitsIcESaIcEEEE12PreOrderFoldIS6_EET_St8functionIFS9_RKS6_RKS9_EES9_
FN:18,21,_ZNK4lasd28PreOrderTraversableContainerIdE12PreOrderFoldIdEET_St8functionIFS3_RKdRKS3_EES3_
FN:18,21,_ZNK4lasd28PreOrderTraversableContainerIiE12PreOrderFoldIiEET_St8functionIFS3_RKiRKS3_EES3_
FN:19,19,_ZZNK4lasd28PreOrderTraversableContainerINSt7__cxx1112basic_stringIcSt11char_traitsIcESaIcEEEE12PreOrderFoldIS6_EET_St8functionIFS9_RKS6_RKS9_EES9_ENKUlSC_E_clESC_
FN:19,19,_ZZNK4lasd28PreOrderTraversableContainerIdE12PreOrderFoldIdEET_St8functionIFS3_RKdRKS3_EES3_ENKUlS6_E_clES6_
FN:19,19,_ZZNK4lasd28PreOrderTraversableContainerIiE12PreOrderFoldIiEET_St8functionIFS3_RKiRKS3_EES3_ENKUlS6_E_clES6_
FN:24,26,_ZNK4lasd28PreOrderTraversableContainerINSt7__cxx1112basic_stringIcSt11char_traitsIcESaIcEEEE8TraverseESt8functionIFvRKS6_EE
FN:24,26,_ZNK4lasd28PreOrderTraversableContainerIdE8TraverseESt8functionIFvRKdEE
FN:24,26,_ZNK4lasd28PreOrderTraversableContainerIiE8TraverseESt8functionIFvRKiEE
FN:30,33,_ZNK4lasd29PostOrderTraversableContainerINSt7__cxx1112basic_stringIcSt11char_traitsIcESaIcEEEE13PostOrderFoldIS6_EET_St8functionIFS9_RKS6_RKS9_EES9_
FN:30,33,_ZNK4lasd29PostOrderTraversableContainerIdE13PostOrderFoldIdEET_St8functionIFS3_RKdRKS3_EES3_
FN:30,33,_ZNK4lasd29PostOrderTraversableContainerIiE13PostOrderFoldIiEET_St8functionIFS3_RKiRKS3_EES3_
FN:31,31,_ZZNK4lasd29PostOrderTraversableContainerINSt7__cxx1112basic_stringIcSt11char_traitsIcESaIcEEEE13PostOrderFoldIS6_EET_St8functionIFS9_RKS6_RKS9_EES9_ENKUlSC_E_clESC_
FN:31,31,_ZZNK4lasd29PostOrderTraversableContainerIdE13PostOrderFoldIdEET_St8functionIFS3_RKdRKS3_EES3_ENKUlS6_E_clES6_
FN:31,31,_ZZNK4lasd29PostOrderTraversableContainerIiE13PostOrderFoldIiEET_St8functionIFS3_RKiRKS3_EES3_ENKUlS6_E_clES6_
FN:36,38,_ZNK4lasd29PostOrderTraversableContainerINSt7__cxx1112basic_stringIcSt11char_traitsIcESaIcEEEE8TraverseESt8functionIFvRKS6_EE
FN:36,38,_ZNK4lasd29PostOrderTraversableContainerIdE8TraverseESt8functionIFvRKdEE
FN:36,38,_ZNK4lasd29PostOrderTraversableContainerIiE8TraverseESt8functionIFvRKiEE
FNDA:50,_ZNK4lasd20TraversableContainerINSt7__cxx1112basic_stringIcSt11char_traitsIcESaIcEEEE6ExistsERKS6_
FNDA:44,_ZNK4lasd20TraversableContainerIdE6ExistsERKd
FNDA:78,_ZNK4lasd20TraversableContainerIiE6ExistsERKi
FNDA:40,_ZNK4lasd28PreOrderTraversableContainerINSt7__cxx1112basic_stringIcSt11char_traitsIcESaIcEEEE12PreOrderFoldIS6_EET_St8functionIFS9_RKS6_RKS9_EES9_
FNDA:4,_ZNK4lasd28PreOrderTraversableContainerIdE12PreOrderFoldIdEET_St8functionIFS3_RKdRKS3_EES3_
FNDA:33,_ZNK4lasd28PreOrderTraversableContainerIiE12PreOrderFoldIiEET_St8functionIFS3_RKiRKS3_EES3_
FNDA:167,_ZZNK4lasd28PreOrderTraversableContainerINSt7__cxx1112basic_stringIcSt11char_traitsIcESaIcEEEE12PreOrderFoldIS6_EET_St8functionIFS9_RKS6_RKS9_EES9_ENKUlSC_E_clESC_
FNDA:14,_ZZNK4lasd28PreOrderTraversableContainerIdE12PreOrderFoldIdEET_St8functionIFS3_RKdRKS3_EES3_ENKUlS6_E_clES6_
FNDA:112,_ZZNK4lasd28PreOrderTraversableContainerIiE12PreOrderFoldIiEET_St8functionIFS3_RKiRKS3_EES3_ENKUlS6_E_clES6_
FNDA:0,_ZNK4lasd28PreOrderTraversableContainerINSt7__cxx1112basic_stringIcSt11char_traitsIcESaIcEEEE8TraverseESt8functionIFvRKS6_EE
FNDA:0,_ZNK4lasd28PreOrderTraversableContainerIdE8TraverseESt8functionIFvRKdEE
FNDA:0,_ZNK4lasd28PreOrderTraversableContainerIiE8TraverseESt8functionIFvRKiEE
FNDA:32,_ZNK4lasd29PostOrderTraversableContainerINSt7__cxx1112basic_stringIcSt11char_traitsIcESaIcEEEE13PostOrderFoldIS6_EET_St8functionIFS9_RKS6_RKS9_EES9_
FNDA:4,_ZNK4lasd29PostOrderTraversableContainerIdE13PostOrderFoldIdEET_St8functionIFS3_RKdRKS3_EES3_
FNDA:29,_ZNK4lasd29PostOrderTraversableContainerIiE13PostOrderFoldIiEET_St8functionIFS3_RKiRKS3_EES3_
FNDA:158,_ZZNK4lasd29PostOrderTraversableContainerINSt7__cxx1112basic_stringIcSt11char_traitsIcESaIcEEEE13PostOrderFoldIS6_EET_St8functionIFS9_RKS6_RKS9_EES9_ENKUlSC_E_clESC_
FNDA:14,_ZZNK4lasd29PostOrderTraversableContainerIdE13PostOrderFoldIdEET_St8functionIFS3_RKdRKS3_EES3_ENKUlS6_E_clES6_
FNDA:101,_ZZNK4lasd29PostOrderTraversableContainerIiE13PostOrderFoldIiEET_St8functionIFS3_RKiRKS3_EES3_ENKUlS6_E_clES6_
FNDA:0,_ZNK4lasd29PostOrderTraversableContainerINSt7__cxx1112basic_stringIcSt11char_traitsIcESaIcEEEE8TraverseESt8functionIFvRKS6_EE
FNDA:0,_ZNK4lasd29PostOrderTraversableContainerIdE8TraverseESt8functionIFvRKdEE
FNDA:0,_ZNK4lasd29PostOrderTraversableContainerIiE8TraverseESt8functionIFvRKiEE
FNF:21
FNH:15
DA:10,172
DA:11,172
DA:12,582
DA:13,172
DA:18,77
DA:19,934
DA:20,77
DA:24,0
DA:25,0
DA:26,0
DA:30,65
DA:31,928
DA:32,65
DA:36,0
DA:37,0
DA:38,0
LF:16
LH:10
end_of_record
TN:
SF:/home/trialshock/Scrivania/Uni/LASD_24-25/secondaConsegna/container/traversable.hpp
FNF:0
FNH:0
DA:9,302
DA:12,0
DA:40,302
DA:43,0
DA:71,302
DA:74,0
LF:6
LH:3
end_of_record
TN:
SF:/home/trialshock/Scrivania/Uni/LASD_24-25/secondaConsegna/heap/heap.hpp
FN:11,11,_ZN4lasd4HeapINSt7__cxx1112basic_stringIcSt11char_traitsIcESaIcEEEED2Ev
FN:11,11,_ZN4lasd4HeapIdED2Ev
FN:11,11,_ZN4lasd4HeapIiED2Ev
FNDA:14,_ZN4lasd4HeapINSt7__cxx1112basic_stringIcSt11char_traitsIcESaIcEEEED2Ev
FNDA:12,_ZN4lasd4HeapIdED2Ev
FNDA:32,_ZN4lasd4HeapIiED2Ev
FNF:3
FNH:3
DA:11,58
LF:1
LH:1
end_of_record
TN:
SF:/home/trialshock/Scrivania/Uni/LASD_24-25/secondaConsegna/heap/vec/heapvec.cpp
FN:13,13,_ZN4lasd7HeapVecINSt7__cxx1112basic_stringIcSt11char_traitsIcESaIcEEEEC1ERKS7_
FN:13,13,_ZN4lasd7HeapVecIdEC1ERKS1_
FN:13,13,_ZN4lasd7HeapVecIiEC1ERKS1_
FN:16,16,_ZN4lasd7HeapVecINSt7__cxx1112basic_stringIcSt11char_traitsIcESaIcEEEEC1EOS7_
FN:16,16,_ZN4lasd7HeapVecIdEC1EOS1_
FN:16,16,_ZN4lasd7HeapVecIiEC1EOS1_
FN:25,28,_ZN4lasd7HeapVecIiEaSEOS1_
FN:3,5,_ZN4lasd7HeapVecINSt7__cxx1112basic_stringIcSt11char_traitsIcESaIcEEEEC1ERKNS_20TraversableContainerIS6_EE
FN:3,5,_ZN4lasd7HeapVecINSt7__cxx1112basic_stringIcSt11char_traitsIcESaIcEEEEC2ERKNS_20TraversableContainerIS6_EE
FN:3,5,_ZN4lasd7HeapVecIdEC1ERKNS_20TraversableContainerIdEE
FN:3,5,_ZN4lasd7HeapVecIdEC2ERKNS_20TraversableContainerIdEE
FN:3,5,_ZN4lasd7HeapVecIiEC1ERKNS_20TraversableContainerIiEE
FN:3,5,_ZN4lasd7HeapVecIiEC2ERKNS_20TraversableContainerIiEE
FN:41,47,_ZNK4lasd7HeapVecINSt7__cxx1112basic_stringIcSt11char_traitsIcESaIcEEEE6IsHeapEv
FN:41,47,_ZNK4lasd7HeapVecIdE6IsHeapEv
FN:41,47,_ZNK4lasd7HeapVecIiE6IsHeapEv
FN:50,57,_ZN4lasd7HeapVecINSt7__cxx1112basic_stringIcSt11char_traitsIcESaIcEEEE7HeapifyEv
FN:50,57,_ZN4lasd7HeapVecIdE7HeapifyEv
FN:50,57,_ZN4lasd7HeapVecIiE7HeapifyEv
FN:60,60,_ZN4lasd7HeapVecINSt7__cxx1112basic_stringIcSt11char_traitsIcESaIcEEEE4SortEv
FN:60,60,_ZN4lasd7HeapVecIdE4SortEv
FN:60,60,_ZN4lasd7HeapVecIiE4SortEv
FN:63,71,_ZN4lasd7HeapVecINSt7__cxx1112basic_stringIcSt11char_traitsIcESaIcEEEE7HeapifyEmm
FN:63,71,_ZN4lasd7HeapVecIdE7HeapifyEmm
FN:63,71,_ZN4lasd7HeapVecIiE7HeapifyEmm
FN:74,80,_ZN4lasd7HeapVecINSt7__cxx1112basic_stringIcSt11char_traitsIcESaIcEEEE8HeapSortEv
FN:74,80,_ZN4lasd7HeapVecIdE8HeapSortEv
FN:74,80,_ZN4lasd7HeapVecIiE8HeapSortEv
FN:8,10,_ZN4lasd7HeapVecINSt7__cxx1112basic_stringIcSt11char_traitsIcESaIcEEEEC1EONS_17MappableContainerIS6_EE
FN:8,10,_ZN4lasd7HeapVecIdEC1EONS_17MappableContainerIdEE
FN:8,10,_ZN4lasd7HeapVecIiEC1EONS_17MappableContainerIiEE
FNDA:1,_ZN4lasd7HeapVecINSt7__cxx1112basic_stringIcSt11char_traitsIcESaIcEEEEC1ERKS7_
FNDA:1,_ZN4lasd7HeapVecIdEC1ERKS1_
FNDA:3,_ZN4lasd7HeapVecIiEC1ERKS1_
FNDA:1,_ZN4lasd7HeapVecINSt7__cxx1112basic_stringIcSt11char_traitsIcESaIcEEEEC1EOS7_
FNDA:1,_ZN4lasd7HeapVecIdEC1EOS1_
FNDA:2,_ZN4lasd7HeapVecIiEC1EOS1_
FNDA:3,_ZN4lasd7HeapVecIiEaSEOS1_
FNDA:3,_ZN4lasd7HeapVecINSt7__cxx1112basic_stringIcSt11char_traitsIcESaIcEEEEC1ERKNS_20TraversableContainerIS6_EE
FNDA:3,_ZN4lasd7HeapVecINSt7__cxx1112basic_stringIcSt11char_traitsIcESaIcEEEEC2ERKNS_20TraversableContainerIS6_EE
FNDA:2,_ZN4lasd7HeapVecIdEC1ERKNS_20TraversableContainerIdEE
FNDA:2,_ZN4lasd7HeapVecIdEC2ERKNS_20TraversableContainerIdEE
FNDA:5,_ZN4lasd7HeapVecIiEC1ERKNS_20TraversableContainerIiEE
FNDA:4,_ZN4lasd7HeapVecIiEC2ERKNS_20TraversableContainerIiEE
FNDA:0,_ZNK4lasd7HeapVecINSt7__cxx1112basic_stringIcSt11char_traitsIcESaIcEEEE6IsHeapEv
FNDA:0,_ZNK4lasd7HeapVecIdE6IsHeapEv
FNDA:10,_ZNK4lasd7HeapVecIiE6IsHeapEv
FNDA:11,_ZN4lasd7HeapVecINSt7__cxx1112basic_stringIcSt11char_traitsIcESaIcEEEE7HeapifyEv
FNDA:10,_ZN4lasd7HeapVecIdE7HeapifyEv
FNDA:28,_ZN4lasd7HeapVecIiE7HeapifyEv
FNDA:0,_ZN4lasd7HeapVecINSt7__cxx1112basic_stringIcSt11char_traitsIcESaIcEEEE4SortEv
FNDA:0,_ZN4lasd7HeapVecIdE4SortEv
FNDA:0,_ZN4lasd7HeapVecIiE4SortEv
FNDA:60,_ZN4lasd7HeapVecINSt7__cxx1112basic_stringIcSt11char_traitsIcESaIcEEEE7HeapifyEmm
FNDA:55,_ZN4lasd7HeapVecIdE7HeapifyEmm
FNDA:174,_ZN4lasd7HeapVecIiE7HeapifyEmm
FNDA:1,_ZN4lasd7HeapVecINSt7__cxx1112basic_stringIcSt11char_traitsIcESaIcEEEE8HeapSortEv
FNDA:2,_ZN4lasd7HeapVecIdE8HeapSortEv
FNDA:10,_ZN4lasd7HeapVecIiE8HeapSortEv
FNDA:1,_ZN4lasd7HeapVecINSt7__cxx1112basic_stringIcSt11char_traitsIcESaIcEEEEC1EONS_17MappableContainerIS6_EE
FNDA:1,_ZN4lasd7HeapVecIdEC1EONS_17MappableContainerIdEE
FNDA:1,_ZN4lasd7HeapVecIiEC1EONS_17MappableContainerIiEE
FNF:31
FNH:26
DA:3,19
DA:4,19
DA:5,19
DA:8,3
DA:9,3
DA:10,3
DA:13,5
DA:16,4
DA:20,3
DA:21,3
DA:25,3
DA:26,3
DA:27,3
DA:32,4
DA:41,10
DA:42,10
DA:43,30
DA:44,24
DA:50,49
DA:53,49
DA:54,285
DA:55,236
DA:57,49
DA:60,14
DA:63,289
DA:64,644
DA:65,644
DA:66,644
DA:67,644
DA:68,355
DA:71,289
DA:74,13
DA:75,13
DA:76,160
DA:77,147
DA:78,147
DA:80,13
LF:37
LH:37
end_of_record
TN:
SF:/home/trialshock/Scrivania/Uni/LASD_24-25/secondaConsegna/heap/vec/heapvec.hpp
FN:17,17,_ZN4lasd7HeapVecINSt7__cxx1112basic_stringIcSt11char_traitsIcESaIcEEEEC1Ev
FN:17,17,_ZN4lasd7HeapVecINSt7__cxx1112basic_stringIcSt11char_traitsIcESaIcEEEEC2Ev
FN:17,17,_ZN4lasd7HeapVecIdEC1Ev
FN:17,17,_ZN4lasd7HeapVecIdEC2Ev
FN:17,17,_ZN4lasd7HeapVecIiEC1Ev
FN:17,17,_ZN4lasd7HeapVecIiEC2Ev
FN:30,30,_ZN4lasd7HeapVecINSt7__cxx1112basic_stringIcSt11char_traitsIcESaIcEEEED0Ev
FN:30,30,_ZN4lasd7HeapVecINSt7__cxx1112basic_stringIcSt11char_traitsIcESaIcEEEED1Ev
FN:30,30,_ZN4lasd7HeapVecINSt7__cxx1112basic_stringIcSt11char_traitsIcESaIcEEEED2Ev
FN:30,30,_ZN4lasd7HeapVecIdED0Ev
FN:30,30,_ZN4lasd7HeapVecIdED1Ev
FN:30,30,_ZN4lasd7HeapVecIdED2Ev
FN:30,30,_ZN4lasd7HeapVecIiED0Ev
FN:30,30,_ZN4lasd7HeapVecIiED1Ev
FN:30,30,_ZN4lasd7HeapVecIiED2Ev
FNDA:1,_ZN4lasd7HeapVecINSt7__cxx1112basic_stringIcSt11char_traitsIcESaIcEEEEC1Ev
FNDA:4,_ZN4lasd7HeapVecINSt7__cxx1112basic_stringIcSt11char_traitsIcESaIcEEEEC2Ev
FNDA:1,_ZN4lasd7HeapVecIdEC1Ev
FNDA:4,_ZN4lasd7HeapVecIdEC2Ev
FNDA:3,_ZN4lasd7HeapVecIiEC1Ev
FNDA:14,_ZN4lasd7HeapVecIiEC2Ev
FNDA:0,_ZN4lasd7HeapVecINSt7__cxx1112basic_stringIcSt11char_traitsIcESaIcEEEED0Ev
FNDA:7,_ZN4lasd7HeapVecINSt7__cxx1112basic_stringIcSt11char_traitsIcESaIcEEEED1Ev
FNDA:7,_ZN4lasd7HeapVecINSt7__cxx1112basic_stringIcSt11char_traitsIcESaIcEEEED2Ev
FNDA:0,_ZN4lasd7HeapVecIdED0Ev
FNDA:6,_ZN4lasd7HeapVecIdED1Ev
FNDA:6,_ZN4lasd7HeapVecIdED2Ev
FNDA:0,_ZN4lasd7HeapVecIiED0Ev
FNDA:14,_ZN4lasd7HeapVecIiED1Ev
FNDA:18,_ZN4lasd7HeapVecIiED2Ev
FNF:15
FNH:12
DA:17,27
DA:30,58
LF:2
LH:2
end_of_record
TN:
SF:/home/trialshock/Scrivania/Uni/LASD_24-25/secondaConsegna/list/list.cpp
FN:118,120,_ZNK4lasd4ListINSt7__cxx1112basic_stringIcSt11char_traitsIcESaIcEEEEeqERKS7_
FN:118,120,_ZNK4lasd4ListIdEeqERKS1_
FN:118,120,_ZNK4lasd4ListIiEeqERKS1_
FN:128,130,_ZN4lasd4ListINSt7__cxx1112basic_stringIcSt11char_traitsIcESaIcEEEE13InsertAtFrontERKS6_
FN:128,130,_ZN4lasd4ListIdE13InsertAtFrontERKd
FN:128,130,_ZN4lasd4ListIiE13InsertAtFrontERKi
FN:133,135,_ZN4lasd4ListIiE13InsertAtFrontEOi
FN:138,140,_ZN4lasd4ListINSt7__cxx1112basic_stringIcSt11char_traitsIcESaIcEEEE15RemoveFromFrontEv
FN:138,140,_ZN4lasd4ListIdE15RemoveFromFrontEv
FN:138,140,_ZN4lasd4ListIiE15RemoveFromFrontEv
FN:14,16,_ZN4lasd4ListINSt7__cxx1112basic_stringIcSt11char_traitsIcESaIcEEEE4NodeD0Ev
FN:14,16,_ZN4lasd4ListINSt7__cxx1112basic_stringIcSt11char_traitsIcESaIcEEEE4NodeD2Ev
FN:14,16,_ZN4lasd4ListIdE4NodeD0Ev
FN:14,16,_ZN4lasd4ListIdE4NodeD2Ev
FN:14,16,_ZN4lasd4ListIiE4NodeD0Ev
FN:14,16,_ZN4lasd4ListIiE4NodeD2Ev
FN:143,145,_ZN4lasd4ListINSt7__cxx1112basic_stringIcSt11char_traitsIcESaIcEEEE12FrontNRemoveEv
FN:143,145,_ZN4lasd4ListIiE12FrontNRemoveEv
FN:148,150,_ZN4lasd4ListINSt7__cxx1112basic_stringIcSt11char_traitsIcESaIcEEEE12InsertAtBackERKS6_
FN:148,150,_ZN4lasd4ListIdE12InsertAtBackERKd
FN:148,150,_ZN4lasd4ListIiE12InsertAtBackERKi
FN:153,155,_ZN4lasd4ListINSt7__cxx1112basic_stringIcSt11char_traitsIcESaIcEEEE12InsertAtBackEOS6_
FN:153,155,_ZN4lasd4ListIdE12InsertAtBackEOd
FN:153,155,_ZN4lasd4ListIiE12InsertAtBackEOi
FN:158,160,_ZN4lasd4ListINSt7__cxx1112basic_stringIcSt11char_traitsIcESaIcEEEE14RemoveFromBackEv
FN:158,160,_ZN4lasd4ListIdE14RemoveFromBackEv
FN:158,160,_ZN4lasd4ListIiE14RemoveFromBackEv
FN:163,165,_ZN4lasd4ListINSt7__cxx1112basic_stringIcSt11char_traitsIcESaIcEEEE11BackNRemoveEv
FN:163,165,_ZN4lasd4ListIiE11BackNRemoveEv
FN:168,174,_ZN4lasd4ListINSt7__cxx1112basic_stringIcSt11char_traitsIcESaIcEEEEixEm
FN:168,174,_ZN4lasd4ListIdEixEm
FN:168,174,_ZN4lasd4ListIiEixEm
FN:177,181,_ZN4lasd4ListINSt7__cxx1112basic_stringIcSt11char_traitsIcESaIcEEEE5FrontEv
FN:177,181,_ZN4lasd4ListIdE5FrontEv
FN:177,181,_ZN4lasd4ListIiE5FrontEv
FN:184,188,_ZN4lasd4ListINSt7__cxx1112basic_stringIcSt11char_traitsIcESaIcEEEE4BackEv
FN:184,188,_ZN4lasd4ListIdE4BackEv
FN:184,188,_ZN4lasd4ListIiE4BackEv
FN:19,21,_ZNK4lasd4ListINSt7__cxx1112basic_stringIcSt11char_traitsIcESaIcEEEE4NodeeqERKS8_
FN:19,21,_ZNK4lasd4ListIdE4NodeeqERKS2_
FN:19,21,_ZNK4lasd4ListIiE4NodeeqERKS2_
FN:191,197,_ZNK4lasd4ListINSt7__cxx1112basic_stringIcSt11char_traitsIcESaIcEEEEixEm
FN:191,197,_ZNK4lasd4ListIdEixEm
FN:191,197,_ZNK4lasd4ListIiEixEm
FN:200,204,_ZNK4lasd4ListINSt7__cxx1112basic_stringIcSt11char_traitsIcESaIcEEEE5FrontEv
FN:200,204,_ZNK4lasd4ListIdE5FrontEv
FN:200,204,_ZNK4lasd4ListIiE5FrontEv
FN:207,211,_ZNK4lasd4ListINSt7__cxx1112basic_stringIcSt11char_traitsIcESaIcEEEE4BackEv
FN:207,211,_ZNK4lasd4ListIdE4BackEv
FN:207,211,_ZNK4lasd4ListIiE4BackEv
FN:214,216,_ZN4lasd4ListINSt7__cxx1112basic_stringIcSt11char_traitsIcESaIcEEEE3MapESt8functionIFvRS6_EE
FN:214,216,_ZN4lasd4ListIdE3MapESt8functionIFvRdEE
FN:214,216,_ZN4lasd4ListIiE3MapESt8functionIFvRiEE
FN:219,221,_ZN4lasd4ListINSt7__cxx1112basic_stringIcSt11char_traitsIcESaIcEEEE11PreOrderMapESt8functionIFvRS6_EE
FN:219,221,_ZN4lasd4ListIdE11PreOrderMapESt8functionIFvRdEE
FN:219,221,_ZN4lasd4ListIiE11PreOrderMapESt8functionIFvRiEE
FN:224,226,_ZN4lasd4ListINSt7__cxx1112basic_stringIcSt11char_traitsIcESaIcEEEE12PostOrderMapESt8functionIFvRS6_EE
FN:224,226,_ZN4lasd4ListIdE12PostOrderMapESt8functionIFvRdEE
FN:224,226,_ZN4lasd4ListIiE12PostOrderMapESt8functionIFvRiEE
FN:229,231,_ZNK4lasd4ListINSt7__cxx1112basic_stringIcSt11char_traitsIcESaIcEEEE8TraverseESt8functionIFvRKS6_EE
FN:229,231,_ZNK4lasd4ListIdE8TraverseESt8functionIFvRKdEE
FN:229,231,_ZNK4lasd4ListIiE8TraverseESt8functionIFvRKiEE
FN:234,236,_ZNK4lasd4ListINSt7__cxx1112basic_stringIcSt11char_traitsIcESaIcEEEE16PreOrderTraverseESt8functionIFvRKS6_EE
FN:234,236,_ZNK4lasd4ListIdE16PreOrderTraverseESt8functionIFvRKdEE
FN:234,236,_ZNK4lasd4ListIiE16PreOrderTraverseESt8functionIFvRKiEE
FN:239,241,_ZNK4lasd4ListINSt7__cxx1112basic_stringIcSt11char_traitsIcESaIcEEEE17PostOrderTraverseESt8functionIFvRKS6_EE
FN:239,241,_ZNK4lasd4ListIdE17PostOrderTraverseESt8functionIFvRKdEE
FN:239,241,_ZNK4lasd4ListIiE17PostOrderTraverseESt8functionIFvRKiEE
FN:244,248,_ZN4lasd4ListINSt7__cxx1112basic_stringIcSt11char_traitsIcESaIcEEEE5ClearEv
FN:244,248,_ZN4lasd4ListIdE5ClearEv
FN:244,248,_ZN4lasd4ListIiE5ClearEv
FN:268,277,_ZN4lasd4ListINSt7__cxx1112basic_stringIcSt11char_traitsIcESaIcEEEE11DetachFrontEv
FN:268,277,_ZN4lasd4ListIdE11DetachFrontEv
FN:268,277,_ZN4lasd4ListIiE11DetachFrontEv
FN:280,292,_ZN4lasd4ListINSt7__cxx1112basic_stringIcSt11char_traitsIcESaIcEEEE10DetachBackEv
FN:280,292,_ZN4lasd4ListIdE10DetachBackEv
FN:280,292,_ZN4lasd4ListIiE10DetachBackEv
FN:29,38,_ZN4lasd4ListINSt7__cxx1112basic_stringIcSt11char_traitsIcESaIcEEEE4Node5CloneEPS8_
FN:29,38,_ZN4lasd4ListIdE4Node5CloneEPS2_
FN:29,38,_ZN4lasd4ListIiE4Node5CloneEPS2_
FN:302,306,_ZN4lasd4ListINSt7__cxx1112basic_stringIcSt11char_traitsIcESaIcEEEE11PreOrderMapESt8functionIFvRS6_EEPNS7_4NodeE
FN:302,306,_ZN4lasd4ListIdE11PreOrderMapESt8functionIFvRdEEPNS1_4NodeE
FN:302,306,_ZN4lasd4ListIiE11PreOrderMapESt8functionIFvRiEEPNS1_4NodeE
FN:309,314,_ZN4lasd4ListINSt7__cxx1112basic_stringIcSt11char_traitsIcESaIcEEEE12PostOrderMapESt8functionIFvRS6_EEPNS7_4NodeE
FN:309,314,_ZN4lasd4ListIdE12PostOrderMapESt8functionIFvRdEEPNS1_4NodeE
FN:309,314,_ZN4lasd4ListIiE12PostOrderMapESt8functionIFvRiEEPNS1_4NodeE
FN:317,321,_ZNK4lasd4ListINSt7__cxx1112basic_stringIcSt11char_traitsIcESaIcEEEE16PreOrderTraverseESt8functionIFvRKS6_EEPNS7_4NodeE
FN:317,321,_ZNK4lasd4ListIdE16PreOrderTraverseESt8functionIFvRKdEEPNS1_4NodeE
FN:317,321,_ZNK4lasd4ListIiE16PreOrderTraverseESt8functionIFvRKiEEPNS1_4NodeE
FN:324,329,_ZNK4lasd4ListINSt7__cxx1112basic_stringIcSt11char_traitsIcESaIcEEEE17PostOrderTraverseESt8functionIFvRKS6_EEPNS7_4NodeE
FN:324,329,_ZNK4lasd4ListIdE17PostOrderTraverseESt8functionIFvRKdEEPNS1_4NodeE
FN:324,329,_ZNK4lasd4ListIiE17PostOrderTraverseESt8functionIFvRKiEEPNS1_4NodeE
FN:41,43,_ZN4lasd4ListINSt7__cxx1112basic_stringIcSt11char_traitsIcESaIcEEEEC1ERKNS_20TraversableContainerIS6_EE
FN:41,43,_ZN4lasd4ListIdEC1ERKNS_20TraversableContainerIdEE
FN:41,43,_ZN4lasd4ListIiEC1ERKNS_20TraversableContainerIiEE
FN:46,48,_ZN4lasd4ListINSt7__cxx1112basic_stringIcSt11char_traitsIcESaIcEEEEC1EONS_17MappableContainerIS6_EE
FN:46,48,_ZN4lasd4ListIdEC1EONS_17MappableContainerIdEE
FN:46,48,_ZN4lasd4ListIiEC1EONS_17MappableContainerIiEE
FN:51,57,_ZN4lasd4ListINSt7__cxx1112basic_stringIcSt11char_traitsIcESaIcEEEEC1ERKS7_
FN:51,57,_ZN4lasd4ListINSt7__cxx1112basic_stringIcSt11char_traitsIcESaIcEEEEC2ERKS7_
FN:51,57,_ZN4lasd4ListIdEC1ERKS1_
FN:51,57,_ZN4lasd4ListIdEC2ERKS1_
FN:51,57,_ZN4lasd4ListIiEC1ERKS1_
FN:51,57,_ZN4lasd4ListIiEC2ERKS1_
FN:60,64,_ZN4lasd4ListINSt7__cxx1112basic_stringIcSt11char_traitsIcESaIcEEEEC1EOS7_
FN:60,64,_ZN4lasd4ListINSt7__cxx1112basic_stringIcSt11char_traitsIcESaIcEEEEC2EOS7_
FN:60,64,_ZN4lasd4ListIdEC1EOS1_
FN:60,64,_ZN4lasd4ListIdEC2EOS1_
FN:60,64,_ZN4lasd4ListIiEC1EOS1_
FN:60,64,_ZN4lasd4ListIiEC2EOS1_
FN:67,69,_ZN4lasd4ListINSt7__cxx1112basic_stringIcSt11char_traitsIcESaIcEEEED0Ev
FN:67,69,_ZN4lasd4ListINSt7__cxx1112basic_stringIcSt11char_traitsIcESaIcEEEED1Ev
FN:67,69,_ZN4lasd4ListINSt7__cxx1112basic_stringIcSt11char_traitsIcESaIcEEEED2Ev
FN:67,69,_ZN4lasd4ListIdED0Ev
FN:67,69,_ZN4lasd4ListIdED1Ev
FN:67,69,_ZN4lasd4ListIdED2Ev
FN:67,69,_ZN4lasd4ListIiED0Ev
FN:67,69,_ZN4lasd4ListIiED1Ev
FN:67,69,_ZN4lasd4ListIiED2Ev
FN:72,107,_ZN4lasd4ListINSt7__cxx1112basic_stringIcSt11char_traitsIcESaIcEEEEaSERKS7_
FN:72,107,_ZN4lasd4ListIiEaSERKS1_
FNDA:19,_ZNK4lasd4ListINSt7__cxx1112basic_stringIcSt11char_traitsIcESaIcEEEEeqERKS7_
FNDA:15,_ZNK4lasd4ListIdEeqERKS1_
FNDA:38,_ZNK4lasd4ListIiEeqERKS1_
FNDA:8,_ZN4lasd4ListINSt7__cxx1112basic_stringIcSt11char_traitsIcESaIcEEEE13InsertAtFrontERKS6_
FNDA:10,_ZN4lasd4ListIdE13InsertAtFrontERKd
FNDA:17,_ZN4lasd4ListIiE13InsertAtFrontERKi
FNDA:1,_ZN4lasd4ListIiE13InsertAtFrontEOi
FNDA:2,_ZN4lasd4ListINSt7__cxx1112basic_stringIcSt11char_traitsIcESaIcEEEE15RemoveFromFrontEv
FNDA:0,_ZN4lasd4ListIdE15RemoveFromFrontEv
FNDA:11,_ZN4lasd4ListIiE15RemoveFromFrontEv
FNDA:102,_ZN4lasd4ListINSt7__cxx1112basic_stringIcSt11char_traitsIcESaIcEEEE4NodeD0Ev
FNDA:102,_ZN4lasd4ListINSt7__cxx1112basic_stringIcSt11char_traitsIcESaIcEEEE4NodeD2Ev
FNDA:99,_ZN4lasd4ListIdE4NodeD0Ev
FNDA:0,_ZN4lasd4ListIdE4NodeD2Ev
FNDA:243,_ZN4lasd4ListIiE4NodeD0Ev
FNDA:0,_ZN4lasd4ListIiE4NodeD2Ev
FNDA:0,_ZN4lasd4ListINSt7__cxx1112basic_stringIcSt11char_traitsIcESaIcEEEE12FrontNRemoveEv
FNDA:1,_ZN4lasd4ListIiE12FrontNRemoveEv
FNDA:31,_ZN4lasd4ListINSt7__cxx1112basic_stringIcSt11char_traitsIcESaIcEEEE12InsertAtBackERKS6_
FNDA:58,_ZN4lasd4ListIdE12InsertAtBackERKd
FNDA:82,_ZN4lasd4ListIiE12InsertAtBackERKi
FNDA:33,_ZN4lasd4ListINSt7__cxx1112basic_stringIcSt11char_traitsIcESaIcEEEE12InsertAtBackEOS6_
FNDA:5,_ZN4lasd4ListIdE12InsertAtBackEOd
FNDA:34,_ZN4lasd4ListIiE12InsertAtBackEOi
FNDA:0,_ZN4lasd4ListINSt7__cxx1112basic_stringIcSt11char_traitsIcESaIcEEEE14RemoveFromBackEv
FNDA:0,_ZN4lasd4ListIdE14RemoveFromBackEv
FNDA:6,_ZN4lasd4ListIiE14RemoveFromBackEv
FNDA:0,_ZN4lasd4ListINSt7__cxx1112basic_stringIcSt11char_traitsIcESaIcEEEE11BackNRemoveEv
FNDA:1,_ZN4lasd4ListIiE11BackNRemoveEv
FNDA:10,_ZN4lasd4ListINSt7__cxx1112basic_stringIcSt11char_traitsIcESaIcEEEEixEm
FNDA:10,_ZN4lasd4ListIdEixEm
FNDA:84,_ZN4lasd4ListIiEixEm
FNDA:2,_ZN4lasd4ListINSt7__cxx1112basic_stringIcSt11char_traitsIcESaIcEEEE5FrontEv
FNDA:0,_ZN4lasd4ListIdE5FrontEv
FNDA:25,_ZN4lasd4ListIiE5FrontEv
FNDA:0,_ZN4lasd4ListINSt7__cxx1112basic_stringIcSt11char_traitsIcESaIcEEEE4BackEv
FNDA:0,_ZN4lasd4ListIdE4BackEv
FNDA:4,_ZN4lasd4ListIiE4BackEv
FNDA:28,_ZNK4lasd4ListINSt7__cxx1112basic_stringIcSt11char_traitsIcESaIcEEEE4NodeeqERKS8_
FNDA:39,_ZNK4lasd4ListIdE4NodeeqERKS2_
FNDA:72,_ZNK4lasd4ListIiE4NodeeqERKS2_
FNDA:3,_ZNK4lasd4ListINSt7__cxx1112basic_stringIcSt11char_traitsIcESaIcEEEEixEm
FNDA:3,_ZNK4lasd4ListIdEixEm
FNDA:5,_ZNK4lasd4ListIiEixEm
FNDA:2,_ZNK4lasd4ListINSt7__cxx1112basic_stringIcSt11char_traitsIcESaIcEEEE5FrontEv
FNDA:2,_ZNK4lasd4ListIdE5FrontEv
FNDA:20,_ZNK4lasd4ListIiE5FrontEv
FNDA:2,_ZNK4lasd4ListINSt7__cxx1112basic_stringIcSt11char_traitsIcESaIcEEEE4BackEv
FNDA:2,_ZNK4lasd4ListIdE4BackEv
FNDA:20,_ZNK4lasd4ListIiE4BackEv
FNDA:6,_ZN4lasd4ListINSt7__cxx1112basic_stringIcSt11char_traitsIcESaIcEEEE3MapESt8functionIFvRS6_EE
FNDA:5,_ZN4lasd4ListIdE3MapESt8functionIFvRdEE
FNDA:5,_ZN4lasd4ListIiE3MapESt8functionIFvRiEE
FNDA:1,_ZN4lasd4ListINSt7__cxx1112basic_stringIcSt11char_traitsIcESaIcEEEE11PreOrderMapESt8functionIFvRS6_EE
FNDA:0,_ZN4lasd4ListIdE11PreOrderMapESt8functionIFvRdEE
FNDA:3,_ZN4lasd4ListIiE11PreOrderMapESt8functionIFvRiEE
FNDA:0,_ZN4lasd4ListINSt7__cxx1112basic_stringIcSt11char_traitsIcESaIcEEEE12PostOrderMapESt8functionIFvRS6_EE
FNDA:0,_ZN4lasd4ListIdE12PostOrderMapESt8functionIFvRdEE
FNDA:1,_ZN4lasd4ListIiE12PostOrderMapESt8functionIFvRiEE
FNDA:52,_ZNK4lasd4ListINSt7__cxx1112basic_stringIcSt11char_traitsIcESaIcEEEE8TraverseESt8functionIFvRKS6_EE
FNDA:49,_ZNK4lasd4ListIdE8TraverseESt8functionIFvRKdEE
FNDA:76,_ZNK4lasd4ListIiE8TraverseESt8functionIFvRKiEE
FNDA:22,_ZNK4lasd4ListINSt7__cxx1112basic_stringIcSt11char_traitsIcESaIcEEEE16PreOrderTraverseESt8functionIFvRKS6_EE
FNDA:15,_ZNK4lasd4ListIdE16PreOrderTraverseESt8functionIFvRKdEE
FNDA:66,_ZNK4lasd4ListIiE16PreOrderTraverseESt8functionIFvRKiEE
FNDA:4,_ZNK4lasd4ListINSt7__cxx1112basic_stringIcSt11char_traitsIcESaIcEEEE17PostOrderTraverseESt8functionIFvRKS6_EE
FNDA:3,_ZNK4lasd4ListIdE17PostOrderTraverseESt8functionIFvRKdEE
FNDA:13,_ZNK4lasd4ListIiE17PostOrderTraverseESt8functionIFvRKiEE
FNDA:0,_ZN4lasd4ListINSt7__cxx1112basic_stringIcSt11char_traitsIcESaIcEEEE5ClearEv
FNDA:0,_ZN4lasd4ListIdE5ClearEv
FNDA:0,_ZN4lasd4ListIiE5ClearEv
FNDA:2,_ZN4lasd4ListINSt7__cxx1112basic_stringIcSt11char_traitsIcESaIcEEEE11DetachFrontEv
FNDA:0,_ZN4lasd4ListIdE11DetachFrontEv
FNDA:15,_ZN4lasd4ListIiE11DetachFrontEv
FNDA:0,_ZN4lasd4ListINSt7__cxx1112basic_stringIcSt11char_traitsIcESaIcEEEE10DetachBackEv
FNDA:0,_ZN4lasd4ListIdE10DetachBackEv
FNDA:11,_ZN4lasd4ListIiE10DetachBackEv
FNDA:15,_ZN4lasd4ListINSt7__cxx1112basic_stringIcSt11char_traitsIcESaIcEEEE4Node5CloneEPS8_
FNDA:13,_ZN4lasd4ListIdE4Node5CloneEPS2_
FNDA:53,_ZN4lasd4ListIiE4Node5CloneEPS2_
FNDA:7,_ZN4lasd4ListINSt7__cxx1112basic_stringIcSt11char_traitsIcESaIcEEEE11PreOrderMapESt8functionIFvRS6_EEPNS7_4NodeE
FNDA:5,_ZN4lasd4ListIdE11PreOrderMapESt8functionIFvRdEEPNS1_4NodeE
FNDA:8,_ZN4lasd4ListIiE11PreOrderMapESt8functionIFvRiEEPNS1_4NodeE
FNDA:0,_ZN4lasd4ListINSt7__cxx1112basic_stringIcSt11char_traitsIcESaIcEEEE12PostOrderMapESt8functionIFvRS6_EEPNS7_4NodeE
FNDA:0,_ZN4lasd4ListIdE12PostOrderMapESt8functionIFvRdEEPNS1_4NodeE
FNDA:6,_ZN4lasd4ListIiE12PostOrderMapESt8functionIFvRiEEPNS1_4NodeE
FNDA:74,_ZNK4lasd4ListINSt7__cxx1112basic_stringIcSt11char_traitsIcESaIcEEEE16PreOrderTraverseESt8functionIFvRKS6_EEPNS7_4NodeE
FNDA:64,_ZNK4lasd4ListIdE16PreOrderTraverseESt8functionIFvRKdEEPNS1_4NodeE
FNDA:142,_ZNK4lasd4ListIiE16PreOrderTraverseESt8functionIFvRKiEEPNS1_4NodeE
FNDA:20,_ZNK4lasd4ListINSt7__cxx1112basic_stringIcSt11char_traitsIcESaIcEEEE17PostOrderTraverseESt8functionIFvRKS6_EEPNS7_4NodeE
FNDA:17,_ZNK4lasd4ListIdE17PostOrderTraverseESt8functionIFvRKdEEPNS1_4NodeE
FNDA:71,_ZNK4lasd4ListIiE17PostOrderTraverseESt8functionIFvRKiEEPNS1_4NodeE
FNDA:2,_ZN4lasd4ListINSt7__cxx1112basic_stringIcSt11char_traitsIcESaIcEEEEC1ERKNS_20TraversableContainerIS6_EE
FNDA:2,_ZN4lasd4ListIdEC1ERKNS_20TraversableContainerIdEE
FNDA:3,_ZN4lasd4ListIiEC1ERKNS_20TraversableContainerIiEE
FNDA:2,_ZN4lasd4ListINSt7__cxx1112basic_stringIcSt11char_traitsIcESaIcEEEEC1EONS_17MappableContainerIS6_EE
FNDA:1,_ZN4lasd4ListIdEC1EONS_17MappableContainerIdEE
FNDA:1,_ZN4lasd4ListIiEC1EONS_17MappableContainerIiEE
FNDA:3,_ZN4lasd4ListINSt7__cxx1112basic_stringIcSt11char_traitsIcESaIcEEEEC1ERKS7_
FNDA:1,_ZN4lasd4ListINSt7__cxx1112basic_stringIcSt11char_traitsIcESaIcEEEEC2ERKS7_
FNDA:2,_ZN4lasd4ListIdEC1ERKS1_
FNDA:1,_ZN4lasd4ListIdEC2ERKS1_
FNDA:5,_ZN4lasd4ListIiEC1ERKS1_
FNDA:6,_ZN4lasd4ListIiEC2ERKS1_
FNDA:1,_ZN4lasd4ListINSt7__cxx1112basic_stringIcSt11char_traitsIcESaIcEEEEC1EOS7_
FNDA:1,_ZN4lasd4ListINSt7__cxx1112basic_stringIcSt11char_traitsIcESaIcEEEEC2EOS7_
FNDA:1,_ZN4lasd4ListIdEC1EOS1_
FNDA:1,_ZN4lasd4ListIdEC2EOS1_
FNDA:4,_ZN4lasd4ListIiEC1EOS1_
FNDA:2,_ZN4lasd4ListIiEC2EOS1_
FNDA:0,_ZN4lasd4ListINSt7__cxx1112basic_stringIcSt11char_traitsIcESaIcEEEED0Ev
FNDA:20,_ZN4lasd4ListINSt7__cxx1112basic_stringIcSt11char_traitsIcESaIcEEEED1Ev
FNDA:7,_ZN4lasd4ListINSt7__cxx1112basic_stringIcSt11char_traitsIcESaIcEEEED2Ev
FNDA:0,_ZN4lasd4ListIdED0Ev
FNDA:15,_ZN4lasd4ListIdED1Ev
FNDA:7,_ZN4lasd4ListIdED2Ev
FNDA:2,_ZN4lasd4ListIiED0Ev
FNDA:36,_ZN4lasd4ListIiED1Ev
FNDA:17,_ZN4lasd4ListIiED2Ev
FNDA:2,_ZN4lasd4ListINSt7__cxx1112basic_stringIcSt11char_traitsIcESaIcEEEEaSERKS7_
FNDA:6,_ZN4lasd4ListIiEaSERKS1_
FNF:121
FNH:98
DA:3,103
DA:4,37
DA:14,546
DA:15,317
DA:16,863
DA:19,139
DA:20,139
DA:29,81
DA:30,81
DA:34,61
DA:35,61
DA:36,61
DA:41,7
DA:42,43
DA:43,7
DA:46,4
DA:47,26
DA:48,4
DA:51,18
DA:52,18
DA:53,18
DA:54,18
DA:55,18
DA:57,18
DA:60,10
DA:63,10
DA:64,10
DA:67,104
DA:68,77
DA:69,159
DA:72,8
DA:73,8
DA:74,5
DA:75,2
DA:76,2
DA:77,2
DA:80,3
DA:81,13
DA:82,10
DA:84,3
DA:85,3
DA:86,3
DA:87,3
DA:92,3
DA:93,1
DA:94,1
DA:97,2
DA:98,4
DA:99,2
DA:101,2
DA:102,2
DA:105,8
DA:106,8
DA:113,9
DA:118,72
DA:119,72
DA:124,10
DA:128,35
DA:129,35
DA:130,35
DA:133,1
DA:134,1
DA:135,1
DA:138,13
DA:139,13
DA:140,11
DA:143,1
DA:144,9
DA:148,171
DA:149,171
DA:150,171
DA:153,72
DA:154,72
DA:155,72
DA:158,6
DA:159,6
DA:160,4
DA:163,1
DA:164,5
DA:168,104
DA:169,104
DA:170,103
DA:171,310
DA:172,103
DA:173,5
DA:177,27
DA:178,27
DA:179,22
DA:180,5
DA:184,4
DA:185,4
DA:186,3
DA:187,1
DA:191,11
DA:192,11
DA:193,11
DA:194,26
DA:195,11
DA:196,0
DA:200,24
DA:201,24
DA:202,22
DA:203,2
DA:207,24
DA:208,24
DA:209,22
DA:210,2
DA:214,16
DA:215,32
DA:216,16
DA:219,4
DA:220,8
DA:221,4
DA:224,1
DA:225,2
DA:226,1
DA:229,177
DA:230,354
DA:231,177
DA:234,103
DA:235,206
DA:236,103
DA:239,20
DA:240,40
DA:241,20
DA:244,0
DA:245,15
DA:246,15
DA:247,7
DA:248,0
DA:252,36
DA:253,28
DA:254,28
DA:255,8
DA:256,10
DA:260,243
DA:261,191
DA:262,191
DA:263,52
DA:264,31
DA:268,17
DA:269,17
DA:271,13
DA:272,13
DA:273,13
DA:274,13
DA:275,13
DA:276,4
DA:280,11
DA:281,11
DA:283,7
DA:285,25
DA:286,6
DA:287,6
DA:288,1
DA:289,7
DA:290,7
DA:291,4
DA:296,4
DA:297,10
DA:302,20
DA:303,111
DA:304,91
DA:306,20
DA:309,6
DA:310,6
DA:311,10
DA:312,5
DA:314,6
DA:317,280
DA:318,1397
DA:319,1117
DA:321,280
DA:324,108
DA:325,108
DA:326,176
DA:327,88
DA:329,108
LF:178
LH:175
end_of_record
TN:
SF:/home/trialshock/Scrivania/Uni/LASD_24-25/secondaConsegna/list/list.hpp
FN:42,42,_ZN4lasd4ListINSt7__cxx1112basic_stringIcSt11char_traitsIcESaIcEEEEC1Ev
FN:42,42,_ZN4lasd4ListINSt7__cxx1112basic_stringIcSt11char_traitsIcESaIcEEEEC2Ev
FN:42,42,_ZN4lasd4ListIdEC1Ev
FN:42,42,_ZN4lasd4ListIdEC2Ev
FN:42,42,_ZN4lasd4ListIiEC1Ev
FN:42,42,_ZN4lasd4ListIiEC2Ev
FNDA:14,_ZN4lasd4ListINSt7__cxx1112basic_stringIcSt11char_traitsIcESaIcEEEEC1Ev
FNDA:5,_ZN4lasd4ListINSt7__cxx1112basic_stringIcSt11char_traitsIcESaIcEEEEC2Ev
FNDA:12,_ZN4lasd4ListIdEC1Ev
FNDA:6,_ZN4lasd4ListIdEC2Ev
FNDA:25,_ZN4lasd4ListIiEC1Ev
FNDA:9,_ZN4lasd4ListIiEC2Ev
FNF:6
FNH:6
DA:18,418
DA:22,25
DA:42,71
LF:3
LH:3
end_of_record
TN:
SF:/home/trialshock/Scrivania/Uni/LASD_24-25/secondaConsegna/main.cpp
FN:7,32,main
FNDA:2,main
FNF:1
FNH:1
DA:7,2
DA:9,2
DA:10,2
DA:14,8
DA:15,8
DA:16,2
DA:17,2
DA:19,2
DA:20,2
DA:22,2
LF:10
LH:10
end_of_record
TN:
SF:/home/trialshock/Scrivania/Uni/LASD_24-25/secondaConsegna/pq/heap/pqheap.cpp
FN:102,112,_ZN4lasd6PQHeapINSt7__cxx1112basic_stringIcSt11char_traitsIcESaIcEEEE6ChangeEmRKS6_
FN:102,112,_ZN4lasd6PQHeapIdE6ChangeEmRKd
FN:102,112,_ZN4lasd6PQHeapIiE6ChangeEmRKi
FN:115,125,_ZN4lasd6PQHeapINSt7__cxx1112basic_stringIcSt11char_traitsIcESaIcEEEE6ChangeEmOS6_
FN:115,125,_ZN4lasd6PQHeapIdE6ChangeEmOd
FN:115,125,_ZN4lasd6PQHeapIiE6ChangeEmOi
FN:128,131,_ZN4lasd6PQHeapINSt7__cxx1112basic_stringIcSt11char_traitsIcESaIcEEEE5ClearEv
FN:128,131,_ZN4lasd6PQHeapIdE5ClearEv
FN:128,131,_ZN4lasd6PQHeapIiE5ClearEv
FN:134,142,_ZN4lasd6PQHeapINSt7__cxx1112basic_stringIcSt11char_traitsIcESaIcEEEE9HeapifyUpEmm
FN:134,142,_ZN4lasd6PQHeapIdE9HeapifyUpEmm
FN:134,142,_ZN4lasd6PQHeapIiE9HeapifyUpEmm
FN:14,19,_ZN4lasd6PQHeapINSt7__cxx1112basic_stringIcSt11char_traitsIcESaIcEEEEC1ERKS7_
FN:14,19,_ZN4lasd6PQHeapIdEC1ERKS1_
FN:14,19,_ZN4lasd6PQHeapIiEC1ERKS1_
FN:145,156,_ZN4lasd6PQHeapINSt7__cxx1112basic_stringIcSt11char_traitsIcESaIcEEEE6ResizeEm
FN:145,156,_ZN4lasd6PQHeapIdE6ResizeEm
FN:145,156,_ZN4lasd6PQHeapIiE6ResizeEm
FN:22,26,_ZN4lasd6PQHeapINSt7__cxx1112basic_stringIcSt11char_traitsIcESaIcEEEEC1EOS7_
FN:22,26,_ZN4lasd6PQHeapIdEC1EOS1_
FN:22,26,_ZN4lasd6PQHeapIiEC1EOS1_
FN:29,34,_ZN4lasd6PQHeapIiEaSERKS1_
FN:3,5,_ZN4lasd6PQHeapINSt7__cxx1112basic_stringIcSt11char_traitsIcESaIcEEEEC1ERKNS_20TraversableContainerIS6_EE
FN:3,5,_ZN4lasd6PQHeapIdEC1ERKNS_20TraversableContainerIdEE
FN:3,5,_ZN4lasd6PQHeapIiEC1ERKNS_20TraversableContainerIiEE
FN:37,42,_ZN4lasd6PQHeapIiEaSEOS1_
FN:55,59,_ZNK4lasd6PQHeapINSt7__cxx1112basic_stringIcSt11char_traitsIcESaIcEEEE3TipEv
FN:55,59,_ZNK4lasd6PQHeapIdE3TipEv
FN:55,59,_ZNK4lasd6PQHeapIiE3TipEv
FN:62,69,_ZN4lasd6PQHeapINSt7__cxx1112basic_stringIcSt11char_traitsIcESaIcEEEE9RemoveTipEv
FN:62,69,_ZN4lasd6PQHeapIdE9RemoveTipEv
FN:62,69,_ZN4lasd6PQHeapIiE9RemoveTipEv
FN:72,81,_ZN4lasd6PQHeapINSt7__cxx1112basic_stringIcSt11char_traitsIcESaIcEEEE10TipNRemoveEv
FN:72,81,_ZN4lasd6PQHeapIdE10TipNRemoveEv
FN:72,81,_ZN4lasd6PQHeapIiE10TipNRemoveEv
FN:8,11,_ZN4lasd6PQHeapINSt7__cxx1112basic_stringIcSt11char_traitsIcESaIcEEEEC1EONS_17MappableContainerIS6_EE
FN:8,11,_ZN4lasd6PQHeapIdEC1EONS_17MappableContainerIdEE
FN:8,11,_ZN4lasd6PQHeapIiEC1EONS_17MappableContainerIiEE
FN:84,90,_ZN4lasd6PQHeapINSt7__cxx1112basic_stringIcSt11char_traitsIcESaIcEEEE6InsertERKS6_
FN:84,90,_ZN4lasd6PQHeapIdE6InsertERKd
FN:84,90,_ZN4lasd6PQHeapIiE6InsertERKi
FN:93,99,_ZN4lasd6PQHeapINSt7__cxx1112basic_stringIcSt11char_traitsIcESaIcEEEE6InsertEOS6_
FN:93,99,_ZN4lasd6PQHeapIdE6InsertEOd
FN:93,99,_ZN4lasd6PQHeapIiE6InsertEOi
FNDA:3,_ZN4lasd6PQHeapINSt7__cxx1112basic_stringIcSt11char_traitsIcESaIcEEEE6ChangeEmRKS6_
FNDA:2,_ZN4lasd6PQHeapIdE6ChangeEmRKd
FNDA:5,_ZN4lasd6PQHeapIiE6ChangeEmRKi
FNDA:0,_ZN4lasd6PQHeapINSt7__cxx1112basic_stringIcSt11char_traitsIcESaIcEEEE6ChangeEmOS6_
FNDA:0,_ZN4lasd6PQHeapIdE6ChangeEmOd
FNDA:4,_ZN4lasd6PQHeapIiE6ChangeEmOi
FNDA:0,_ZN4lasd6PQHeapINSt7__cxx1112basic_stringIcSt11char_traitsIcESaIcEEEE5ClearEv
FNDA:0,_ZN4lasd6PQHeapIdE5ClearEv
FNDA:2,_ZN4lasd6PQHeapIiE5ClearEv
FNDA:4,_ZN4lasd6PQHeapINSt7__cxx1112basic_stringIcSt11char_traitsIcESaIcEEEE9HeapifyUpEmm
FNDA:2,_ZN4lasd6PQHeapIdE9HeapifyUpEmm
FNDA:23,_ZN4lasd6PQHeapIiE9HeapifyUpEmm
FNDA:1,_ZN4lasd6PQHeapINSt7__cxx1112basic_stringIcSt11char_traitsIcESaIcEEEEC1ERKS7_
FNDA:1,_ZN4lasd6PQHeapIdEC1ERKS1_
FNDA:5,_ZN4lasd6PQHeapIiEC1ERKS1_
FNDA:0,_ZN4lasd6PQHeapINSt7__cxx1112basic_stringIcSt11char_traitsIcESaIcEEEE6ResizeEm
FNDA:0,_ZN4lasd6PQHeapIdE6ResizeEm
FNDA:9,_ZN4lasd6PQHeapIiE6ResizeEm
FNDA:1,_ZN4lasd6PQHeapINSt7__cxx1112basic_stringIcSt11char_traitsIcESaIcEEEEC1EOS7_
FNDA:1,_ZN4lasd6PQHeapIdEC1EOS1_
FNDA:4,_ZN4lasd6PQHeapIiEC1EOS1_
FNDA:3,_ZN4lasd6PQHeapIiEaSERKS1_
FNDA:3,_ZN4lasd6PQHeapINSt7__cxx1112basic_stringIcSt11char_traitsIcESaIcEEEEC1ERKNS_20TraversableContainerIS6_EE
FNDA:2,_ZN4lasd6PQHeapIdEC1ERKNS_20TraversableContainerIdEE
FNDA:4,_ZN4lasd6PQHeapIiEC1ERKNS_20TraversableContainerIiEE
FNDA:9,_ZN4lasd6PQHeapIiEaSEOS1_
FNDA:7,_ZNK4lasd6PQHeapINSt7__cxx1112basic_stringIcSt11char_traitsIcESaIcEEEE3TipEv
FNDA:7,_ZNK4lasd6PQHeapIdE3TipEv
FNDA:40,_ZNK4lasd6PQHeapIiE3TipEv
FNDA:2,_ZN4lasd6PQHeapINSt7__cxx1112basic_stringIcSt11char_traitsIcESaIcEEEE9RemoveTipEv
FNDA:2,_ZN4lasd6PQHeapIdE9RemoveTipEv
FNDA:7,_ZN4lasd6PQHeapIiE9RemoveTipEv
FNDA:3,_ZN4lasd6PQHeapINSt7__cxx1112basic_stringIcSt11char_traitsIcESaIcEEEE10TipNRemoveEv
FNDA:3,_ZN4lasd6PQHeapIdE10TipNRemoveEv
FNDA:21,_ZN4lasd6PQHeapIiE10TipNRemoveEv
FNDA:1,_ZN4lasd6PQHeapINSt7__cxx1112basic_stringIcSt11char_traitsIcESaIcEEEEC1EONS_17MappableContainerIS6_EE
FNDA:1,_ZN4lasd6PQHeapIdEC1EONS_17MappableContainerIdEE
FNDA:1,_ZN4lasd6PQHeapIiEC1EONS_17MappableContainerIiEE
FNDA:3,_ZN4lasd6PQHeapINSt7__cxx1112basic_stringIcSt11char_traitsIcESaIcEEEE6InsertERKS6_
FNDA:1,_ZN4lasd6PQHeapIdE6InsertERKd
FNDA:15,_ZN4lasd6PQHeapIiE6InsertERKi
FNDA:0,_ZN4lasd6PQHeapINSt7__cxx1112basic_stringIcSt11char_traitsIcESaIcEEEE6InsertEOS6_
FNDA:0,_ZN4lasd6PQHeapIdE6InsertEOd
FNDA:4,_ZN4lasd6PQHeapIiE6InsertEOi
FNF:44
FNH:36
DA:3,9
DA:4,9
DA:5,9
DA:8,3
DA:9,3
DA:10,3
DA:11,3
DA:14,7
DA:15,7
DA:16,7
DA:17,12
DA:18,52
DA:19,7
DA:22,6
DA:23,6
DA:25,6
DA:26,6
DA:29,3
DA:30,3
DA:31,3
DA:32,3
DA:33,3
DA:37,9
DA:38,9
DA:40,9
DA:41,9
DA:46,4
DA:55,54
DA:56,54
DA:57,53
DA:58,1
DA:62,11
DA:63,11
DA:64,9
DA:65,9
DA:66,9
DA:67,9
DA:68,2
DA:69,9
DA:72,27
DA:73,27
DA:74,26
DA:75,26
DA:76,26
DA:77,26
DA:78,26
DA:79,29
DA:80,1
DA:84,19
DA:85,19
DA:86,19
DA:87,19
DA:88,19
DA:89,19
DA:90,19
DA:93,4
DA:94,4
DA:95,4
DA:96,4
DA:97,4
DA:98,4
DA:99,4
DA:102,10
DA:103,10
DA:104,10
DA:105,5
DA:106,5
DA:108,5
DA:109,5
DA:112,10
DA:115,4
DA:116,4
DA:117,2
DA:118,1
DA:119,1
DA:121,1
DA:122,1
DA:125,4
DA:128,2
DA:129,2
DA:130,2
DA:131,2
DA:134,29
DA:135,56
DA:136,43
DA:137,43
DA:138,7
DA:145,9
DA:146,9
DA:147,9
DA:148,62
DA:149,39
DA:150,30
DA:152,9
DA:153,9
DA:154,9
DA:156,9
LF:97
LH:97
end_of_record
TN:
SF:/home/trialshock/Scrivania/Uni/LASD_24-25/secondaConsegna/pq/heap/pqheap.hpp
FN:16,16,_ZN4lasd6PQHeapINSt7__cxx1112basic_stringIcSt11char_traitsIcESaIcEEEEC1Ev
FN:16,16,_ZN4lasd6PQHeapIdEC1Ev
FN:16,16,_ZN4lasd6PQHeapIiEC1Ev
FN:29,29,_ZN4lasd6PQHeapINSt7__cxx1112basic_stringIcSt11char_traitsIcESaIcEEEED0Ev
FN:29,29,_ZN4lasd6PQHeapINSt7__cxx1112basic_stringIcSt11char_traitsIcESaIcEEEED1Ev
FN:29,29,_ZN4lasd6PQHeapIdED0Ev
FN:29,29,_ZN4lasd6PQHeapIdED1Ev
FN:29,29,_ZN4lasd6PQHeapIiED0Ev
FN:29,29,_ZN4lasd6PQHeapIiED1Ev
FNDA:1,_ZN4lasd6PQHeapINSt7__cxx1112basic_stringIcSt11char_traitsIcESaIcEEEEC1Ev
FNDA:1,_ZN4lasd6PQHeapIdEC1Ev
FNDA:4,_ZN4lasd6PQHeapIiEC1Ev
FNDA:0,_ZN4lasd6PQHeapINSt7__cxx1112basic_stringIcSt11char_traitsIcESaIcEEEED0Ev
FNDA:7,_ZN4lasd6PQHeapINSt7__cxx1112basic_stringIcSt11char_traitsIcESaIcEEEED1Ev
FNDA:0,_ZN4lasd6PQHeapIdED0Ev
FNDA:6,_ZN4lasd6PQHeapIdED1Ev
FNDA:3,_ZN4lasd6PQHeapIiED0Ev
FNDA:18,_ZN4lasd6PQHeapIiED1Ev
FNF:9
FNH:7
DA:16,6
DA:29,34
LF:2
LH:2
end_of_record
TN:
SF:/home/trialshock/Scrivania/Uni/LASD_24-25/secondaConsegna/pq/pq.hpp
FN:11,11,_ZN4lasd2PQINSt7__cxx1112basic_stringIcSt11char_traitsIcESaIcEEEED2Ev
FN:11,11,_ZN4lasd2PQIdED2Ev
FN:11,11,_ZN4lasd2PQIiED2Ev
FNDA:7,_ZN4lasd2PQINSt7__cxx1112basic_stringIcSt11char_traitsIcESaIcEEEED2Ev
FNDA:6,_ZN4lasd2PQIdED2Ev
FNDA:18,_ZN4lasd2PQIiED2Ev
FNF:3
FNH:3
DA:11,31
LF:1
LH:1
end_of_record
TN:
SF:/home/trialshock/Scrivania/Uni/LASD_24-25/secondaConsegna/set/lst/setlst.cpp
FN:110,128,_ZN4lasd6SetLstINSt7__cxx1112basic_stringIcSt11char_traitsIcESaIcEEEE17RemovePredecessorERKS6_
FN:110,128,_ZN4lasd6SetLstIdE17RemovePredecessorERKd
FN:110,128,_ZN4lasd6SetLstIiE17RemovePredecessorERKi
FN:13,13,_ZN4lasd6SetLstINSt7__cxx1112basic_stringIcSt11char_traitsIcESaIcEEEEC1ERKS7_
FN:13,13,_ZN4lasd6SetLstIdEC1ERKS1_
FN:13,13,_ZN4lasd6SetLstIiEC1ERKS1_
FN:131,139,_ZNK4lasd6SetLstINSt7__cxx1112basic_stringIcSt11char_traitsIcESaIcEEEE9SuccessorERKS6_
FN:131,139,_ZNK4lasd6SetLstIdE9SuccessorERKd
FN:131,139,_ZNK4lasd6SetLstIiE9SuccessorERKi
FN:142,163,_ZN4lasd6SetLstINSt7__cxx1112basic_stringIcSt11char_traitsIcESaIcEEEE16SuccessorNRemoveERKS6_
FN:142,163,_ZN4lasd6SetLstIdE16SuccessorNRemoveERKd
FN:142,163,_ZN4lasd6SetLstIiE16SuccessorNRemoveERKi
FN:16,16,_ZN4lasd6SetLstINSt7__cxx1112basic_stringIcSt11char_traitsIcESaIcEEEEC1EOS7_
FN:16,16,_ZN4lasd6SetLstIdEC1EOS1_
FN:16,16,_ZN4lasd6SetLstIiEC1EOS1_
FN:166,185,_ZN4lasd6SetLstINSt7__cxx1112basic_stringIcSt11char_traitsIcESaIcEEEE15RemoveSuccessorERKS6_
FN:166,185,_ZN4lasd6SetLstIdE15RemoveSuccessorERKd
FN:166,185,_ZN4lasd6SetLstIiE15RemoveSuccessorERKi
FN:188,207,_ZN4lasd6SetLstINSt7__cxx1112basic_stringIcSt11char_traitsIcESaIcEEEE6InsertERKS6_
FN:188,207,_ZN4lasd6SetLstIdE6InsertERKd
FN:188,207,_ZN4lasd6SetLstIiE6InsertERKi
FN:210,229,_ZN4lasd6SetLstINSt7__cxx1112basic_stringIcSt11char_traitsIcESaIcEEEE6InsertEOS6_
FN:210,229,_ZN4lasd6SetLstIdE6InsertEOd
FN:210,229,_ZN4lasd6SetLstIiE6InsertEOi
FN:232,254,_ZN4lasd6SetLstINSt7__cxx1112basic_stringIcSt11char_traitsIcESaIcEEEE6RemoveERKS6_
FN:232,254,_ZN4lasd6SetLstIdE6RemoveERKd
FN:232,254,_ZN4lasd6SetLstIiE6RemoveERKi
FN:25,28,_ZN4lasd6SetLstIiEaSEOS1_
FN:257,265,_ZNK4lasd6SetLstINSt7__cxx1112basic_stringIcSt11char_traitsIcESaIcEEEEixEm
FN:257,265,_ZNK4lasd6SetLstIdEixEm
FN:257,265,_ZNK4lasd6SetLstIiEixEm
FN:268,275,_ZNK4lasd6SetLstINSt7__cxx1112basic_stringIcSt11char_traitsIcESaIcEEEE6ExistsERKS6_
FN:268,275,_ZNK4lasd6SetLstIdE6ExistsERKd
FN:268,275,_ZNK4lasd6SetLstIiE6ExistsERKi
FN:278,280,_ZN4lasd6SetLstINSt7__cxx1112basic_stringIcSt11char_traitsIcESaIcEEEE5ClearEv
FN:278,280,_ZN4lasd6SetLstIdE5ClearEv
FN:278,280,_ZN4lasd6SetLstIiE5ClearEv
FN:3,5,_ZN4lasd6SetLstINSt7__cxx1112basic_stringIcSt11char_traitsIcESaIcEEEEC1ERKNS_20TraversableContainerIS6_EE
FN:3,5,_ZN4lasd6SetLstIdEC1ERKNS_20TraversableContainerIdEE
FN:3,5,_ZN4lasd6SetLstIiEC1ERKNS_20TraversableContainerIiEE
FN:41,47,_ZNK4lasd6SetLstINSt7__cxx1112basic_stringIcSt11char_traitsIcESaIcEEEE3MinEv
FN:41,47,_ZNK4lasd6SetLstIdE3MinEv
FN:41,47,_ZNK4lasd6SetLstIiE3MinEv
FN:50,52,_ZN4lasd6SetLstINSt7__cxx1112basic_stringIcSt11char_traitsIcESaIcEEEE10MinNRemoveEv
FN:50,52,_ZN4lasd6SetLstIdE10MinNRemoveEv
FN:50,52,_ZN4lasd6SetLstIiE10MinNRemoveEv
FN:55,57,_ZN4lasd6SetLstINSt7__cxx1112basic_stringIcSt11char_traitsIcESaIcEEEE9RemoveMinEv
FN:55,57,_ZN4lasd6SetLstIdE9RemoveMinEv
FN:55,57,_ZN4lasd6SetLstIiE9RemoveMinEv
FN:60,62,_ZNK4lasd6SetLstINSt7__cxx1112basic_stringIcSt11char_traitsIcESaIcEEEE3MaxEv
FN:60,62,_ZNK4lasd6SetLstIdE3MaxEv
FN:60,62,_ZNK4lasd6SetLstIiE3MaxEv
FN:65,67,_ZN4lasd6SetLstINSt7__cxx1112basic_stringIcSt11char_traitsIcESaIcEEEE10MaxNRemoveEv
FN:65,67,_ZN4lasd6SetLstIdE10MaxNRemoveEv
FN:65,67,_ZN4lasd6SetLstIiE10MaxNRemoveEv
FN:70,72,_ZN4lasd6SetLstINSt7__cxx1112basic_stringIcSt11char_traitsIcESaIcEEEE9RemoveMaxEv
FN:70,72,_ZN4lasd6SetLstIdE9RemoveMaxEv
FN:70,72,_ZN4lasd6SetLstIiE9RemoveMaxEv
FN:75,84,_ZNK4lasd6SetLstINSt7__cxx1112basic_stringIcSt11char_traitsIcESaIcEEEE11PredecessorERKS6_
FN:75,84,_ZNK4lasd6SetLstIdE11PredecessorERKd
FN:75,84,_ZNK4lasd6SetLstIiE11PredecessorERKi
FN:8,10,_ZN4lasd6SetLstINSt7__cxx1112basic_stringIcSt11char_traitsIcESaIcEEEEC1EONS_17MappableContainerIS6_EE
FN:8,10,_ZN4lasd6SetLstIdEC1EONS_17MappableContainerIdEE
FN:8,10,_ZN4lasd6SetLstIiEC1EONS_17MappableContainerIiEE
FN:87,107,_ZN4lasd6SetLstINSt7__cxx1112basic_stringIcSt11char_traitsIcESaIcEEEE18PredecessorNRemoveERKS6_
FN:87,107,_ZN4lasd6SetLstIdE18PredecessorNRemoveERKd
FN:87,107,_ZN4lasd6SetLstIiE18PredecessorNRemoveERKi
FNDA:0,_ZN4lasd6SetLstINSt7__cxx1112basic_stringIcSt11char_traitsIcESaIcEEEE17RemovePredecessorERKS6_
FNDA:0,_ZN4lasd6SetLstIdE17RemovePredecessorERKd
FNDA:5,_ZN4lasd6SetLstIiE17RemovePredecessorERKi
FNDA:1,_ZN4lasd6SetLstINSt7__cxx1112basic_stringIcSt11char_traitsIcESaIcEEEEC1ERKS7_
FNDA:1,_ZN4lasd6SetLstIdEC1ERKS1_
FNDA:6,_ZN4lasd6SetLstIiEC1ERKS1_
FNDA:0,_ZNK4lasd6SetLstINSt7__cxx1112basic_stringIcSt11char_traitsIcESaIcEEEE9SuccessorERKS6_
FNDA:0,_ZNK4lasd6SetLstIdE9SuccessorERKd
FNDA:8,_ZNK4lasd6SetLstIiE9SuccessorERKi
FNDA:0,_ZN4lasd6SetLstINSt7__cxx1112basic_stringIcSt11char_traitsIcESaIcEEEE16SuccessorNRemoveERKS6_
FNDA:0,_ZN4lasd6SetLstIdE16SuccessorNRemoveERKd
FNDA:5,_ZN4lasd6SetLstIiE16SuccessorNRemoveERKi
FNDA:1,_ZN4lasd6SetLstINSt7__cxx1112basic_stringIcSt11char_traitsIcESaIcEEEEC1EOS7_
FNDA:1,_ZN4lasd6SetLstIdEC1EOS1_
FNDA:2,_ZN4lasd6SetLstIiEC1EOS1_
FNDA:0,_ZN4lasd6SetLstINSt7__cxx1112basic_stringIcSt11char_traitsIcESaIcEEEE15RemoveSuccessorERKS6_
FNDA:0,_ZN4lasd6SetLstIdE15RemoveSuccessorERKd
FNDA:4,_ZN4lasd6SetLstIiE15RemoveSuccessorERKi
FNDA:15,_ZN4lasd6SetLstINSt7__cxx1112basic_stringIcSt11char_traitsIcESaIcEEEE6InsertERKS6_
FNDA:28,_ZN4lasd6SetLstIdE6InsertERKd
FNDA:47,_ZN4lasd6SetLstIiE6InsertERKi
FNDA:4,_ZN4lasd6SetLstINSt7__cxx1112basic_stringIcSt11char_traitsIcESaIcEEEE6InsertEOS6_
FNDA:0,_ZN4lasd6SetLstIdE6InsertEOd
FNDA:26,_ZN4lasd6SetLstIiE6InsertEOi
FNDA:0,_ZN4lasd6SetLstINSt7__cxx1112basic_stringIcSt11char_traitsIcESaIcEEEE6RemoveERKS6_
FNDA:0,_ZN4lasd6SetLstIdE6RemoveERKd
FNDA:7,_ZN4lasd6SetLstIiE6RemoveERKi
FNDA:3,_ZN4lasd6SetLstIiEaSEOS1_
FNDA:20,_ZNK4lasd6SetLstINSt7__cxx1112basic_stringIcSt11char_traitsIcESaIcEEEEixEm
FNDA:21,_ZNK4lasd6SetLstIdEixEm
FNDA:58,_ZNK4lasd6SetLstIiEixEm
FNDA:0,_ZNK4lasd6SetLstINSt7__cxx1112basic_stringIcSt11char_traitsIcESaIcEEEE6ExistsERKS6_
FNDA:0,_ZNK4lasd6SetLstIdE6ExistsERKd
FNDA:7,_ZNK4lasd6SetLstIiE6ExistsERKi
FNDA:0,_ZN4lasd6SetLstINSt7__cxx1112basic_stringIcSt11char_traitsIcESaIcEEEE5ClearEv
FNDA:2,_ZN4lasd6SetLstIdE5ClearEv
FNDA:6,_ZN4lasd6SetLstIiE5ClearEv
FNDA:2,_ZN4lasd6SetLstINSt7__cxx1112basic_stringIcSt11char_traitsIcESaIcEEEEC1ERKNS_20TraversableContainerIS6_EE
FNDA:2,_ZN4lasd6SetLstIdEC1ERKNS_20TraversableContainerIdEE
FNDA:2,_ZN4lasd6SetLstIiEC1ERKNS_20TraversableContainerIiEE
FNDA:0,_ZNK4lasd6SetLstINSt7__cxx1112basic_stringIcSt11char_traitsIcESaIcEEEE3MinEv
FNDA:0,_ZNK4lasd6SetLstIdE3MinEv
FNDA:17,_ZNK4lasd6SetLstIiE3MinEv
FNDA:0,_ZN4lasd6SetLstINSt7__cxx1112basic_stringIcSt11char_traitsIcESaIcEEEE10MinNRemoveEv
FNDA:0,_ZN4lasd6SetLstIdE10MinNRemoveEv
FNDA:3,_ZN4lasd6SetLstIiE10MinNRemoveEv
FNDA:0,_ZN4lasd6SetLstINSt7__cxx1112basic_stringIcSt11char_traitsIcESaIcEEEE9RemoveMinEv
FNDA:0,_ZN4lasd6SetLstIdE9RemoveMinEv
FNDA:1,_ZN4lasd6SetLstIiE9RemoveMinEv
FNDA:0,_ZNK4lasd6SetLstINSt7__cxx1112basic_stringIcSt11char_traitsIcESaIcEEEE3MaxEv
FNDA:0,_ZNK4lasd6SetLstIdE3MaxEv
FNDA:9,_ZNK4lasd6SetLstIiE3MaxEv
FNDA:0,_ZN4lasd6SetLstINSt7__cxx1112basic_stringIcSt11char_traitsIcESaIcEEEE10MaxNRemoveEv
FNDA:0,_ZN4lasd6SetLstIdE10MaxNRemoveEv
FNDA:3,_ZN4lasd6SetLstIiE10MaxNRemoveEv
FNDA:0,_ZN4lasd6SetLstINSt7__cxx1112basic_stringIcSt11char_traitsIcESaIcEEEE9RemoveMaxEv
FNDA:0,_ZN4lasd6SetLstIdE9RemoveMaxEv
FNDA:1,_ZN4lasd6SetLstIiE9RemoveMaxEv
FNDA:0,_ZNK4lasd6SetLstINSt7__cxx1112basic_stringIcSt11char_traitsIcESaIcEEEE11PredecessorERKS6_
FNDA:0,_ZNK4lasd6SetLstIdE11PredecessorERKd
FNDA:9,_ZNK4lasd6SetLstIiE11PredecessorERKi
FNDA:1,_ZN4lasd6SetLstINSt7__cxx1112basic_stringIcSt11char_traitsIcESaIcEEEEC1EONS_17MappableContainerIS6_EE
FNDA:1,_ZN4lasd6SetLstIdEC1EONS_17MappableContainerIdEE
FNDA:1,_ZN4lasd6SetLstIiEC1EONS_17MappableContainerIiEE
FNDA:0,_ZN4lasd6SetLstINSt7__cxx1112basic_stringIcSt11char_traitsIcESaIcEEEE18PredecessorNRemoveERKS6_
FNDA:0,_ZN4lasd6SetLstIdE18PredecessorNRemoveERKd
FNDA:5,_ZN4lasd6SetLstIiE18PredecessorNRemoveERKi
FNF:67
FNH:37
DA:3,6
DA:4,45
DA:5,6
DA:8,3
DA:9,21
DA:10,3
DA:13,8
DA:16,4
DA:20,1
DA:21,1
DA:25,3
DA:26,3
DA:27,3
DA:32,30
DA:37,9
DA:41,17
DA:43,17
DA:44,2
DA:45,1
DA:50,3
DA:51,3
DA:55,1
DA:56,3
DA:57,2
DA:60,9
DA:61,17
DA:65,3
DA:66,3
DA:70,1
DA:71,3
DA:72,2
DA:75,9
DA:77,9
DA:78,37
DA:80,28
DA:82,9
DA:83,2
DA:87,5
DA:90,5
DA:91,13
DA:94,8
DA:96,5
DA:97,3
DA:98,3
DA:99,1
DA:100,3
DA:101,3
DA:102,3
DA:103,3
DA:104,3
DA:106,2
DA:110,5
DA:113,5
DA:114,16
DA:117,11
DA:119,5
DA:120,3
DA:121,1
DA:122,3
DA:123,3
DA:124,3
DA:125,3
DA:127,2
DA:128,3
DA:131,8
DA:132,8
DA:133,28
DA:134,20
DA:136,8
DA:137,6
DA:138,2
DA:142,5
DA:143,5
DA:145,13
DA:147,8
DA:149,5
DA:150,3
DA:151,3
DA:152,2
DA:153,2
DA:155,1
DA:156,1
DA:158,3
DA:159,3
DA:160,3
DA:161,3
DA:162,2
DA:166,4
DA:167,4
DA:169,11
DA:171,7
DA:173,4
DA:174,2
DA:175,1
DA:176,1
DA:178,1
DA:179,1
DA:181,2
DA:182,2
DA:183,2
DA:184,2
DA:185,2
DA:188,90
DA:189,90
DA:191,213
DA:193,123
DA:195,90
DA:196,86
DA:197,86
DA:198,46
DA:199,46
DA:201,40
DA:202,40
DA:204,86
DA:205,86
DA:206,86
DA:210,30
DA:211,30
DA:213,77
DA:215,47
DA:217,30
DA:218,30
DA:219,30
DA:220,19
DA:221,19
DA:223,11
DA:224,11
DA:226,30
DA:227,30
DA:228,30
DA:232,7
DA:233,7
DA:235,20
DA:237,13
DA:239,7
DA:240,6
DA:241,3
DA:242,3
DA:243,1
DA:246,3
DA:247,3
DA:249,6
DA:250,6
DA:251,6
DA:252,6
DA:257,99
DA:258,99
DA:259,98
DA:260,279
DA:261,181
DA:263,98
DA:264,5
DA:268,7
DA:269,10
DA:270,49
DA:271,38
DA:273,11
DA:274,5
DA:278,8
DA:279,8
DA:280,8
LF:161
LH:161
end_of_record
TN:
SF:/home/trialshock/Scrivania/Uni/LASD_24-25/secondaConsegna/set/lst/setlst.hpp
FN:17,17,_ZN4lasd6SetLstINSt7__cxx1112basic_stringIcSt11char_traitsIcESaIcEEEEC1Ev
FN:17,17,_ZN4lasd6SetLstIdEC1Ev
FN:17,17,_ZN4lasd6SetLstIiEC1Ev
FN:30,30,_ZN4lasd6SetLstINSt7__cxx1112basic_stringIcSt11char_traitsIcESaIcEEEED0Ev
FN:30,30,_ZN4lasd6SetLstINSt7__cxx1112basic_stringIcSt11char_traitsIcESaIcEEEED1Ev
FN:30,30,_ZN4lasd6SetLstIdED0Ev
FN:30,30,_ZN4lasd6SetLstIdED1Ev
FN:30,30,_ZN4lasd6SetLstIiED0Ev
FN:30,30,_ZN4lasd6SetLstIiED1Ev
FNDA:2,_ZN4lasd6SetLstINSt7__cxx1112basic_stringIcSt11char_traitsIcESaIcEEEEC1Ev
FNDA:3,_ZN4lasd6SetLstIdEC1Ev
FNDA:6,_ZN4lasd6SetLstIiEC1Ev
FNDA:0,_ZN4lasd6SetLstINSt7__cxx1112basic_stringIcSt11char_traitsIcESaIcEEEED0Ev
FNDA:7,_ZN4lasd6SetLstINSt7__cxx1112basic_stringIcSt11char_traitsIcESaIcEEEED1Ev
FNDA:0,_ZN4lasd6SetLstIdED0Ev
FNDA:7,_ZN4lasd6SetLstIdED1Ev
FNDA:0,_ZN4lasd6SetLstIiED0Ev
FNDA:17,_ZN4lasd6SetLstIiED1Ev
FNF:9
FNH:6
DA:17,11
DA:30,31
LF:2
LH:2
end_of_record
TN:
SF:/home/trialshock/Scrivania/Uni/LASD_24-25/secondaConsegna/set/set.hpp
FN:12,12,_ZN4lasd3SetINSt7__cxx1112basic_stringIcSt11char_traitsIcESaIcEEEED2Ev
FN:12,12,_ZN4lasd3SetIdED2Ev
FN:12,12,_ZN4lasd3SetIiED2Ev
FNDA:14,_ZN4lasd3SetINSt7__cxx1112basic_stringIcSt11char_traitsIcESaIcEEEED2Ev
FNDA:14,_ZN4lasd3SetIdED2Ev
FNDA:42,_ZN4lasd3SetIiED2Ev
FNF:3
FNH:3
DA:12,70
LF:1
LH:1
end_of_record
TN:
SF:/home/trialshock/Scrivania/Uni/LASD_24-25/secondaConsegna/set/vec/setvec.cpp
FN:103,107,_ZNK4lasd6SetVecINSt7__cxx1112basic_stringIcSt11char_traitsIcESaIcEEEE3MaxEv
FN:103,107,_ZNK4lasd6SetVecIdE3MaxEv
FN:103,107,_ZNK4lasd6SetVecIiE3MaxEv
FN:110,123,_ZN4lasd6SetVecINSt7__cxx1112basic_stringIcSt11char_traitsIcESaIcEEEE10MaxNRemoveEv
FN:110,123,_ZN4lasd6SetVecIdE10MaxNRemoveEv
FN:110,123,_ZN4lasd6SetVecIiE10MaxNRemoveEv
FN:126,136,_ZN4lasd6SetVecINSt7__cxx1112basic_stringIcSt11char_traitsIcESaIcEEEE9RemoveMaxEv
FN:126,136,_ZN4lasd6SetVecIdE9RemoveMaxEv
FN:126,136,_ZN4lasd6SetVecIiE9RemoveMaxEv
FN:13,20,_ZN4lasd6SetVecINSt7__cxx1112basic_stringIcSt11char_traitsIcESaIcEEEEC1ERKS7_
FN:13,20,_ZN4lasd6SetVecIdEC1ERKS1_
FN:13,20,_ZN4lasd6SetVecIiEC1ERKS1_
FN:139,143,_ZNK4lasd6SetVecINSt7__cxx1112basic_stringIcSt11char_traitsIcESaIcEEEE11PredecessorERKS6_
FN:139,143,_ZNK4lasd6SetVecIdE11PredecessorERKd
FN:139,143,_ZNK4lasd6SetVecIiE11PredecessorERKi
FN:146,154,_ZN4lasd6SetVecINSt7__cxx1112basic_stringIcSt11char_traitsIcESaIcEEEE18PredecessorNRemoveERKS6_
FN:146,154,_ZN4lasd6SetVecIdE18PredecessorNRemoveERKd
FN:146,154,_ZN4lasd6SetVecIiE18PredecessorNRemoveERKi
FN:157,161,_ZN4lasd6SetVecINSt7__cxx1112basic_stringIcSt11char_traitsIcESaIcEEEE17RemovePredecessorERKS6_
FN:157,161,_ZN4lasd6SetVecIdE17RemovePredecessorERKd
FN:157,161,_ZN4lasd6SetVecIiE17RemovePredecessorERKi
FN:164,168,_ZNK4lasd6SetVecINSt7__cxx1112basic_stringIcSt11char_traitsIcESaIcEEEE9SuccessorERKS6_
FN:164,168,_ZNK4lasd6SetVecIdE9SuccessorERKd
FN:164,168,_ZNK4lasd6SetVecIiE9SuccessorERKi
FN:171,179,_ZN4lasd6SetVecINSt7__cxx1112basic_stringIcSt11char_traitsIcESaIcEEEE16SuccessorNRemoveERKS6_
FN:171,179,_ZN4lasd6SetVecIdE16SuccessorNRemoveERKd
FN:171,179,_ZN4lasd6SetVecIiE16SuccessorNRemoveERKi
FN:182,186,_ZN4lasd6SetVecINSt7__cxx1112basic_stringIcSt11char_traitsIcESaIcEEEE15RemoveSuccessorERKS6_
FN:182,186,_ZN4lasd6SetVecIdE15RemoveSuccessorERKd
FN:182,186,_ZN4lasd6SetVecIiE15RemoveSuccessorERKi
FN:189,211,_ZN4lasd6SetVecINSt7__cxx1112basic_stringIcSt11char_traitsIcESaIcEEEE6InsertERKS6_
FN:189,211,_ZN4lasd6SetVecIdE6InsertERKd
FN:189,211,_ZN4lasd6SetVecIiE6InsertERKi
FN:214,236,_ZN4lasd6SetVecINSt7__cxx1112basic_stringIcSt11char_traitsIcESaIcEEEE6InsertEOS6_
FN:214,236,_ZN4lasd6SetVecIdE6InsertEOd
FN:214,236,_ZN4lasd6SetVecIiE6InsertEOi
FN:23,29,_ZN4lasd6SetVecINSt7__cxx1112basic_stringIcSt11char_traitsIcESaIcEEEEC1EOS7_
FN:23,29,_ZN4lasd6SetVecIdEC1EOS1_
FN:23,29,_ZN4lasd6SetVecIiEC1EOS1_
FN:239,255,_ZN4lasd6SetVecINSt7__cxx1112basic_stringIcSt11char_traitsIcESaIcEEEE6RemoveERKS6_
FN:239,255,_ZN4lasd6SetVecIdE6RemoveERKd
FN:239,255,_ZN4lasd6SetVecIiE6RemoveERKi
FN:258,262,_ZNK4lasd6SetVecINSt7__cxx1112basic_stringIcSt11char_traitsIcESaIcEEEEixEm
FN:258,262,_ZNK4lasd6SetVecIdEixEm
FN:258,262,_ZNK4lasd6SetVecIiEixEm
FN:265,277,_ZNK4lasd6SetVecINSt7__cxx1112basic_stringIcSt11char_traitsIcESaIcEEEE6ExistsERKS6_
FN:265,277,_ZNK4lasd6SetVecIdE6ExistsERKd
FN:265,277,_ZNK4lasd6SetVecIiE6ExistsERKi
FN:280,284,_ZN4lasd6SetVecINSt7__cxx1112basic_stringIcSt11char_traitsIcESaIcEEEE5ClearEv
FN:280,284,_ZN4lasd6SetVecIdE5ClearEv
FN:280,284,_ZN4lasd6SetVecIiE5ClearEv
FN:287,300,_ZN4lasd6SetVecINSt7__cxx1112basic_stringIcSt11char_traitsIcESaIcEEEE6ResizeEm
FN:287,300,_ZN4lasd6SetVecIdE6ResizeEm
FN:287,300,_ZN4lasd6SetVecIiE6ResizeEm
FN:3,5,_ZN4lasd6SetVecINSt7__cxx1112basic_stringIcSt11char_traitsIcESaIcEEEEC1ERKNS_20TraversableContainerIS6_EE
FN:3,5,_ZN4lasd6SetVecIdEC1ERKNS_20TraversableContainerIdEE
FN:3,5,_ZN4lasd6SetVecIiEC1ERKNS_20TraversableContainerIiEE
FN:303,307,_ZN4lasd6SetVecINSt7__cxx1112basic_stringIcSt11char_traitsIcESaIcEEEE12CheckEnlargeEv
FN:303,307,_ZN4lasd6SetVecIdE12CheckEnlargeEv
FN:303,307,_ZN4lasd6SetVecIiE12CheckEnlargeEv
FN:310,316,_ZN4lasd6SetVecINSt7__cxx1112basic_stringIcSt11char_traitsIcESaIcEEEE11CheckReduceEv
FN:310,316,_ZN4lasd6SetVecIdE11CheckReduceEv
FN:310,316,_ZN4lasd6SetVecIiE11CheckReduceEv
FN:319,336,_ZN4lasd6SetVecINSt7__cxx1112basic_stringIcSt11char_traitsIcESaIcEEEE10CreateHoleEm
FN:319,336,_ZN4lasd6SetVecIdE10CreateHoleEm
FN:319,336,_ZN4lasd6SetVecIiE10CreateHoleEm
FN:32,37,_ZN4lasd6SetVecIiEaSERKS1_
FN:339,358,_ZN4lasd6SetVecINSt7__cxx1112basic_stringIcSt11char_traitsIcESaIcEEEE10RemoveHoleEm
FN:339,358,_ZN4lasd6SetVecIdE10RemoveHoleEm
FN:339,358,_ZN4lasd6SetVecIiE10RemoveHoleEm
FN:361,375,_ZNK4lasd6SetVecINSt7__cxx1112basic_stringIcSt11char_traitsIcESaIcEEEE16PredecessorIndexERKS6_
FN:361,375,_ZNK4lasd6SetVecIdE16PredecessorIndexERKd
FN:361,375,_ZNK4lasd6SetVecIiE16PredecessorIndexERKi
FN:378,389,_ZNK4lasd6SetVecINSt7__cxx1112basic_stringIcSt11char_traitsIcESaIcEEEE14SuccessorIndexERKS6_
FN:378,389,_ZNK4lasd6SetVecIdE14SuccessorIndexERKd
FN:378,389,_ZNK4lasd6SetVecIiE14SuccessorIndexERKi
FN:40,47,_ZN4lasd6SetVecIiEaSEOS1_
FN:50,59,_ZNK4lasd6SetVecINSt7__cxx1112basic_stringIcSt11char_traitsIcESaIcEEEEeqERKS7_
FN:50,59,_ZNK4lasd6SetVecIdEeqERKS1_
FN:50,59,_ZNK4lasd6SetVecIiEeqERKS1_
FN:67,71,_ZNK4lasd6SetVecINSt7__cxx1112basic_stringIcSt11char_traitsIcESaIcEEEE3MinEv
FN:67,71,_ZNK4lasd6SetVecIdE3MinEv
FN:67,71,_ZNK4lasd6SetVecIiE3MinEv
FN:74,87,_ZN4lasd6SetVecINSt7__cxx1112basic_stringIcSt11char_traitsIcESaIcEEEE10MinNRemoveEv
FN:74,87,_ZN4lasd6SetVecIdE10MinNRemoveEv
FN:74,87,_ZN4lasd6SetVecIiE10MinNRemoveEv
FN:8,10,_ZN4lasd6SetVecINSt7__cxx1112basic_stringIcSt11char_traitsIcESaIcEEEEC1EONS_17MappableContainerIS6_EE
FN:8,10,_ZN4lasd6SetVecIdEC1EONS_17MappableContainerIdEE
FN:8,10,_ZN4lasd6SetVecIiEC1EONS_17MappableContainerIiEE
FN:90,100,_ZN4lasd6SetVecINSt7__cxx1112basic_stringIcSt11char_traitsIcESaIcEEEE9RemoveMinEv
FN:90,100,_ZN4lasd6SetVecIdE9RemoveMinEv
FN:90,100,_ZN4lasd6SetVecIiE9RemoveMinEv
FNDA:0,_ZNK4lasd6SetVecINSt7__cxx1112basic_stringIcSt11char_traitsIcESaIcEEEE3MaxEv
FNDA:0,_ZNK4lasd6SetVecIdE3MaxEv
FNDA:15,_ZNK4lasd6SetVecIiE3MaxEv
FNDA:0,_ZN4lasd6SetVecINSt7__cxx1112basic_stringIcSt11char_traitsIcESaIcEEEE10MaxNRemoveEv
FNDA:0,_ZN4lasd6SetVecIdE10MaxNRemoveEv
FNDA:4,_ZN4lasd6SetVecIiE10MaxNRemoveEv
FNDA:0,_ZN4lasd6SetVecINSt7__cxx1112basic_stringIcSt11char_traitsIcESaIcEEEE9RemoveMaxEv
FNDA:0,_ZN4lasd6SetVecIdE9RemoveMaxEv
FNDA:7,_ZN4lasd6SetVecIiE9RemoveMaxEv
FNDA:1,_ZN4lasd6SetVecINSt7__cxx1112basic_stringIcSt11char_traitsIcESaIcEEEEC1ERKS7_
FNDA:1,_ZN4lasd6SetVecIdEC1ERKS1_
FNDA:10,_ZN4lasd6SetVecIiEC1ERKS1_
FNDA:0,_ZNK4lasd6SetVecINSt7__cxx1112basic_stringIcSt11char_traitsIcESaIcEEEE11PredecessorERKS6_
FNDA:0,_ZNK4lasd6SetVecIdE11PredecessorERKd
FNDA:9,_ZNK4lasd6SetVecIiE11PredecessorERKi
FNDA:0,_ZN4lasd6SetVecINSt7__cxx1112basic_stringIcSt11char_traitsIcESaIcEEEE18PredecessorNRemoveERKS6_
FNDA:0,_ZN4lasd6SetVecIdE18PredecessorNRemoveERKd
FNDA:4,_ZN4lasd6SetVecIiE18PredecessorNRemoveERKi
FNDA:0,_ZN4lasd6SetVecINSt7__cxx1112basic_stringIcSt11char_traitsIcESaIcEEEE17RemovePredecessorERKS6_
FNDA:0,_ZN4lasd6SetVecIdE17RemovePredecessorERKd
FNDA:6,_ZN4lasd6SetVecIiE17RemovePredecessorERKi
FNDA:0,_ZNK4lasd6SetVecINSt7__cxx1112basic_stringIcSt11char_traitsIcESaIcEEEE9SuccessorERKS6_
FNDA:0,_ZNK4lasd6SetVecIdE9SuccessorERKd
FNDA:8,_ZNK4lasd6SetVecIiE9SuccessorERKi
FNDA:0,_ZN4lasd6SetVecINSt7__cxx1112basic_stringIcSt11char_traitsIcESaIcEEEE16SuccessorNRemoveERKS6_
FNDA:0,_ZN4lasd6SetVecIdE16SuccessorNRemoveERKd
FNDA:4,_ZN4lasd6SetVecIiE16SuccessorNRemoveERKi
FNDA:0,_ZN4lasd6SetVecINSt7__cxx1112basic_stringIcSt11char_traitsIcESaIcEEEE15RemoveSuccessorERKS6_
FNDA:0,_ZN4lasd6SetVecIdE15RemoveSuccessorERKd
FNDA:5,_ZN4lasd6SetVecIiE15RemoveSuccessorERKi
FNDA:15,_ZN4lasd6SetVecINSt7__cxx1112basic_stringIcSt11char_traitsIcESaIcEEEE6InsertERKS6_
FNDA:28,_ZN4lasd6SetVecIdE6InsertERKd
FNDA:37,_ZN4lasd6SetVecIiE6InsertERKi
FNDA:5,_ZN4lasd6SetVecINSt7__cxx1112basic_stringIcSt11char_traitsIcESaIcEEEE6InsertEOS6_
FNDA:0,_ZN4lasd6SetVecIdE6InsertEOd
FNDA:23,_ZN4lasd6SetVecIiE6InsertEOi
FNDA:1,_ZN4lasd6SetVecINSt7__cxx1112basic_stringIcSt11char_traitsIcESaIcEEEEC1EOS7_
FNDA:1,_ZN4lasd6SetVecIdEC1EOS1_
FNDA:7,_ZN4lasd6SetVecIiEC1EOS1_
FNDA:0,_ZN4lasd6SetVecINSt7__cxx1112basic_stringIcSt11char_traitsIcESaIcEEEE6RemoveERKS6_
FNDA:0,_ZN4lasd6SetVecIdE6RemoveERKd
FNDA:6,_ZN4lasd6SetVecIiE6RemoveERKi
FNDA:65,_ZNK4lasd6SetVecINSt7__cxx1112basic_stringIcSt11char_traitsIcESaIcEEEEixEm
FNDA:53,_ZNK4lasd6SetVecIdEixEm
FNDA:293,_ZNK4lasd6SetVecIiEixEm
FNDA:0,_ZNK4lasd6SetVecINSt7__cxx1112basic_stringIcSt11char_traitsIcESaIcEEEE6ExistsERKS6_
FNDA:0,_ZNK4lasd6SetVecIdE6ExistsERKd
FNDA:11,_ZNK4lasd6SetVecIiE6ExistsERKi
FNDA:0,_ZN4lasd6SetVecINSt7__cxx1112basic_stringIcSt11char_traitsIcESaIcEEEE5ClearEv
FNDA:2,_ZN4lasd6SetVecIdE5ClearEv
FNDA:5,_ZN4lasd6SetVecIiE5ClearEv
FNDA:8,_ZN4lasd6SetVecINSt7__cxx1112basic_stringIcSt11char_traitsIcESaIcEEEE6ResizeEm
FNDA:14,_ZN4lasd6SetVecIdE6ResizeEm
FNDA:34,_ZN4lasd6SetVecIiE6ResizeEm
FNDA:2,_ZN4lasd6SetVecINSt7__cxx1112basic_stringIcSt11char_traitsIcESaIcEEEEC1ERKNS_20TraversableContainerIS6_EE
FNDA:2,_ZN4lasd6SetVecIdEC1ERKNS_20TraversableContainerIdEE
FNDA:2,_ZN4lasd6SetVecIiEC1ERKNS_20TraversableContainerIiEE
FNDA:20,_ZN4lasd6SetVecINSt7__cxx1112basic_stringIcSt11char_traitsIcESaIcEEEE12CheckEnlargeEv
FNDA:28,_ZN4lasd6SetVecIdE12CheckEnlargeEv
FNDA:60,_ZN4lasd6SetVecIiE12CheckEnlargeEv
FNDA:0,_ZN4lasd6SetVecINSt7__cxx1112basic_stringIcSt11char_traitsIcESaIcEEEE11CheckReduceEv
FNDA:0,_ZN4lasd6SetVecIdE11CheckReduceEv
FNDA:27,_ZN4lasd6SetVecIiE11CheckReduceEv
FNDA:6,_ZN4lasd6SetVecINSt7__cxx1112basic_stringIcSt11char_traitsIcESaIcEEEE10CreateHoleEm
FNDA:5,_ZN4lasd6SetVecIdE10CreateHoleEm
FNDA:25,_ZN4lasd6SetVecIiE10CreateHoleEm
FNDA:4,_ZN4lasd6SetVecIiEaSERKS1_
FNDA:0,_ZN4lasd6SetVecINSt7__cxx1112basic_stringIcSt11char_traitsIcESaIcEEEE10RemoveHoleEm
FNDA:0,_ZN4lasd6SetVecIdE10RemoveHoleEm
FNDA:15,_ZN4lasd6SetVecIiE10RemoveHoleEm
FNDA:0,_ZNK4lasd6SetVecINSt7__cxx1112basic_stringIcSt11char_traitsIcESaIcEEEE16PredecessorIndexERKS6_
FNDA:0,_ZNK4lasd6SetVecIdE16PredecessorIndexERKd
FNDA:19,_ZNK4lasd6SetVecIiE16PredecessorIndexERKi
FNDA:0,_ZNK4lasd6SetVecINSt7__cxx1112basic_stringIcSt11char_traitsIcESaIcEEEE14SuccessorIndexERKS6_
FNDA:0,_ZNK4lasd6SetVecIdE14SuccessorIndexERKd
FNDA:17,_ZNK4lasd6SetVecIiE14SuccessorIndexERKi
FNDA:11,_ZN4lasd6SetVecIiEaSEOS1_
FNDA:1,_ZNK4lasd6SetVecINSt7__cxx1112basic_stringIcSt11char_traitsIcESaIcEEEEeqERKS7_
FNDA:9,_ZNK4lasd6SetVecIdEeqERKS1_
FNDA:11,_ZNK4lasd6SetVecIiEeqERKS1_
FNDA:0,_ZNK4lasd6SetVecINSt7__cxx1112basic_stringIcSt11char_traitsIcESaIcEEEE3MinEv
FNDA:0,_ZNK4lasd6SetVecIdE3MinEv
FNDA:13,_ZNK4lasd6SetVecIiE3MinEv
FNDA:0,_ZN4lasd6SetVecINSt7__cxx1112basic_stringIcSt11char_traitsIcESaIcEEEE10MinNRemoveEv
FNDA:0,_ZN4lasd6SetVecIdE10MinNRemoveEv
FNDA:4,_ZN4lasd6SetVecIiE10MinNRemoveEv
FNDA:1,_ZN4lasd6SetVecINSt7__cxx1112basic_stringIcSt11char_traitsIcESaIcEEEEC1EONS_17MappableContainerIS6_EE
FNDA:1,_ZN4lasd6SetVecIdEC1EONS_17MappableContainerIdEE
FNDA:1,_ZN4lasd6SetVecIiEC1EONS_17MappableContainerIiEE
FNDA:0,_ZN4lasd6SetVecINSt7__cxx1112basic_stringIcSt11char_traitsIcESaIcEEEE9RemoveMinEv
FNDA:0,_ZN4lasd6SetVecIdE9RemoveMinEv
FNDA:6,_ZN4lasd6SetVecIiE9RemoveMinEv
FNF:92
FNH:54
DA:3,6
DA:4,45
DA:5,6
DA:8,3
DA:9,21
DA:10,3
DA:13,12
DA:14,12
DA:15,12
DA:16,20
DA:17,12
DA:18,12
DA:19,64
DA:20,12
DA:23,9
DA:24,9
DA:28,9
DA:29,9
DA:32,4
DA:33,4
DA:34,4
DA:35,4
DA:36,4
DA:40,11
DA:41,11
DA:45,11
DA:46,11
DA:50,21
DA:51,21
DA:52,110
DA:53,92
DA:63,8
DA:67,13
DA:68,13
DA:69,12
DA:70,1
DA:74,4
DA:75,4
DA:76,2
DA:77,2
DA:78,2
DA:79,2
DA:80,2
DA:81,2
DA:82,1
DA:83,1
DA:84,1
DA:85,1
DA:86,1
DA:90,6
DA:91,6
DA:92,4
DA:93,4
DA:94,4
DA:95,2
DA:96,1
DA:97,1
DA:98,1
DA:99,1
DA:100,5
DA:103,15
DA:104,15
DA:105,14
DA:106,1
DA:110,4
DA:111,4
DA:112,2
DA:113,2
DA:114,2
DA:115,2
DA:116,2
DA:117,2
DA:118,1
DA:119,1
DA:120,1
DA:121,1
DA:122,1
DA:126,7
DA:127,7
DA:128,5
DA:129,5
DA:130,5
DA:131,2
DA:132,1
DA:133,1
DA:134,1
DA:135,1
DA:136,6
DA:139,9
DA:140,9
DA:141,9
DA:142,2
DA:146,4
DA:147,4
DA:148,4
DA:149,2
DA:150,2
DA:151,2
DA:153,2
DA:157,6
DA:158,6
DA:159,6
DA:160,2
DA:161,4
DA:164,8
DA:165,8
DA:166,8
DA:167,2
DA:171,4
DA:172,4
DA:173,4
DA:174,2
DA:175,2
DA:176,2
DA:178,2
DA:182,5
DA:183,5
DA:184,5
DA:185,2
DA:186,3
DA:189,80
DA:190,80
DA:191,80
DA:192,282
DA:194,125
DA:195,125
DA:196,55
DA:199,77
DA:200,32
DA:201,32
DA:202,45
DA:203,20
DA:204,20
DA:206,25
DA:207,25
DA:209,77
DA:210,77
DA:214,28
DA:215,28
DA:216,28
DA:217,93
DA:219,37
DA:220,37
DA:221,21
DA:224,28
DA:225,15
DA:226,15
DA:227,13
DA:228,2
DA:229,2
DA:231,11
DA:232,11
DA:234,28
DA:235,28
DA:239,6
DA:240,6
DA:241,5
DA:243,17
DA:245,12
DA:246,12
DA:247,8
DA:250,5
DA:251,4
DA:252,4
DA:254,1
DA:258,411
DA:259,411
DA:260,410
DA:261,5
DA:265,11
DA:266,11
DA:267,11
DA:268,48
DA:270,31
DA:271,31
DA:272,13
DA:280,7
DA:281,7
DA:282,7
DA:283,7
DA:284,7
DA:287,56
DA:288,56
DA:289,56
DA:290,408
DA:291,133
DA:292,77
DA:294,56
DA:295,56
DA:296,56
DA:297,56
DA:298,76
DA:300,56
DA:303,108
DA:304,108
DA:305,23
DA:306,85
DA:307,108
DA:310,27
DA:311,27
DA:312,11
DA:313,11
DA:314,11
DA:316,27
DA:319,36
DA:320,36
DA:321,36
DA:323,21
DA:324,47
DA:325,26
DA:329,15
DA:330,15
DA:331,32
DA:332,17
DA:339,15
DA:340,15
DA:341,13
DA:343,10
DA:344,10
DA:345,8
DA:346,17
DA:347,9
DA:350,5
DA:351,3
DA:353,2
DA:355,10
DA:356,10
DA:358,15
DA:361,19
DA:362,19
DA:363,16
DA:364,79
DA:366,47
DA:367,47
DA:368,25
DA:373,16
DA:374,3
DA:378,17
DA:379,17
DA:380,14
DA:381,65
DA:383,37
DA:384,37
DA:385,16
DA:387,14
DA:388,3
LF:246
LH:246
end_of_record
TN:
SF:/home/trialshock/Scrivania/Uni/LASD_24-25/secondaConsegna/set/vec/setvec.hpp
FN:21,21,_ZN4lasd6SetVecINSt7__cxx1112basic_stringIcSt11char_traitsIcESaIcEEEEC1Ev
FN:21,21,_ZN4lasd6SetVecIdEC1Ev
FN:21,21,_ZN4lasd6SetVecIiEC1Ev
FN:34,34,_ZN4lasd6SetVecINSt7__cxx1112basic_stringIcSt11char_traitsIcESaIcEEEED0Ev
FN:34,34,_ZN4lasd6SetVecINSt7__cxx1112basic_stringIcSt11char_traitsIcESaIcEEEED1Ev
FN:34,34,_ZN4lasd6SetVecIdED0Ev
FN:34,34,_ZN4lasd6SetVecIdED1Ev
FN:34,34,_ZN4lasd6SetVecIiED0Ev
FN:34,34,_ZN4lasd6SetVecIiED1Ev
FNDA:2,_ZN4lasd6SetVecINSt7__cxx1112basic_stringIcSt11char_traitsIcESaIcEEEEC1Ev
FNDA:3,_ZN4lasd6SetVecIdEC1Ev
FNDA:6,_ZN4lasd6SetVecIiEC1Ev
FNDA:0,_ZN4lasd6SetVecINSt7__cxx1112basic_stringIcSt11char_traitsIcESaIcEEEED0Ev
FNDA:7,_ZN4lasd6SetVecINSt7__cxx1112basic_stringIcSt11char_traitsIcESaIcEEEED1Ev
FNDA:0,_ZN4lasd6SetVecIdED0Ev
FNDA:7,_ZN4lasd6SetVecIdED1Ev
FNDA:4,_ZN4lasd6SetVecIiED0Ev
FNDA:25,_ZN4lasd6SetVecIiED1Ev
FNF:9
FNH:7
DA:21,11
DA:34,43
LF:2
LH:2
end_of_record
TN:
SF:/home/trialshock/Scrivania/Uni/LASD_24-25/secondaConsegna/vector/vector.cpp
FN:106,110,_ZNK4lasd6VectorINSt7__cxx1112basic_stringIcSt11char_traitsIcESaIcEEEE4BackEv
FN:106,110,_ZNK4lasd6VectorIdE4BackEv
FN:106,110,_ZNK4lasd6VectorIiE4BackEv
FN:113,127,_ZN4lasd6VectorINSt7__cxx1112basic_stringIcSt11char_traitsIcESaIcEEEE6ResizeEm
FN:113,127,_ZN4lasd6VectorIdE6ResizeEm
FN:113,127,_ZN4lasd6VectorIiE6ResizeEm
FN:130,134,_ZN4lasd6VectorINSt7__cxx1112basic_stringIcSt11char_traitsIcESaIcEEEE5ClearEv
FN:130,134,_ZN4lasd6VectorIdE5ClearEv
FN:130,134,_ZN4lasd6VectorIiE5ClearEv
FN:137,137,_ZN4lasd14SortableVectorINSt7__cxx1112basic_stringIcSt11char_traitsIcESaIcEEEEC1Em
FN:137,137,_ZN4lasd14SortableVectorIdEC1Em
FN:137,137,_ZN4lasd14SortableVectorIiEC1Em
FN:140,140,_ZN4lasd14SortableVectorINSt7__cxx1112basic_stringIcSt11char_traitsIcESaIcEEEEC1ERKNS_20TraversableContainerIS6_EE
FN:140,140,_ZN4lasd14SortableVectorIdEC1ERKNS_20TraversableContainerIdEE
FN:140,140,_ZN4lasd14SortableVectorIiEC1ERKNS_20TraversableContainerIiEE
FN:143,143,_ZN4lasd14SortableVectorINSt7__cxx1112basic_stringIcSt11char_traitsIcESaIcEEEEC1EONS_17MappableContainerIS6_EE
FN:146,146,_ZN4lasd14SortableVectorINSt7__cxx1112basic_stringIcSt11char_traitsIcESaIcEEEEC1ERKS7_
FN:146,146,_ZN4lasd14SortableVectorIdEC1ERKS1_
FN:146,146,_ZN4lasd14SortableVectorIiEC1ERKS1_
FN:149,149,_ZN4lasd14SortableVectorINSt7__cxx1112basic_stringIcSt11char_traitsIcESaIcEEEEC1EOS7_
FN:15,18,_ZN4lasd6VectorINSt7__cxx1112basic_stringIcSt11char_traitsIcESaIcEEEEC1EONS_17MappableContainerIS6_EE
FN:15,18,_ZN4lasd6VectorINSt7__cxx1112basic_stringIcSt11char_traitsIcESaIcEEEEC2EONS_17MappableContainerIS6_EE
FN:15,18,_ZN4lasd6VectorIdEC1EONS_17MappableContainerIdEE
FN:15,18,_ZN4lasd6VectorIdEC2EONS_17MappableContainerIdEE
FN:15,18,_ZN4lasd6VectorIiEC1EONS_17MappableContainerIiEE
FN:15,18,_ZN4lasd6VectorIiEC2EONS_17MappableContainerIiEE
FN:158,161,_ZN4lasd14SortableVectorINSt7__cxx1112basic_stringIcSt11char_traitsIcESaIcEEEEaSEOS7_
FN:21,25,_ZN4lasd6VectorINSt7__cxx1112basic_stringIcSt11char_traitsIcESaIcEEEEC1ERKS7_
FN:21,25,_ZN4lasd6VectorINSt7__cxx1112basic_stringIcSt11char_traitsIcESaIcEEEEC2ERKS7_
FN:21,25,_ZN4lasd6VectorIdEC1ERKS1_
FN:21,25,_ZN4lasd6VectorIdEC2ERKS1_
FN:21,25,_ZN4lasd6VectorIiEC1ERKS1_
FN:21,25,_ZN4lasd6VectorIiEC2ERKS1_
FN:28,31,_ZN4lasd6VectorINSt7__cxx1112basic_stringIcSt11char_traitsIcESaIcEEEEC1EOS7_
FN:28,31,_ZN4lasd6VectorINSt7__cxx1112basic_stringIcSt11char_traitsIcESaIcEEEEC2EOS7_
FN:28,31,_ZN4lasd6VectorIdEC1EOS1_
FN:28,31,_ZN4lasd6VectorIdEC2EOS1_
FN:28,31,_ZN4lasd6VectorIiEC1EOS1_
FN:28,31,_ZN4lasd6VectorIiEC2EOS1_
FN:3,6,_ZN4lasd6VectorINSt7__cxx1112basic_stringIcSt11char_traitsIcESaIcEEEEC1Em
FN:3,6,_ZN4lasd6VectorINSt7__cxx1112basic_stringIcSt11char_traitsIcESaIcEEEEC2Em
FN:3,6,_ZN4lasd6VectorIdEC1Em
FN:3,6,_ZN4lasd6VectorIdEC2Em
FN:3,6,_ZN4lasd6VectorIiEC1Em
FN:3,6,_ZN4lasd6VectorIiEC2Em
FN:34,36,_ZN4lasd6VectorINSt7__cxx1112basic_stringIcSt11char_traitsIcESaIcEEEED0Ev
FN:34,36,_ZN4lasd6VectorINSt7__cxx1112basic_stringIcSt11char_traitsIcESaIcEEEED1Ev
FN:34,36,_ZN4lasd6VectorINSt7__cxx1112basic_stringIcSt11char_traitsIcESaIcEEEED2Ev
FN:34,36,_ZN4lasd6VectorIdED0Ev
FN:34,36,_ZN4lasd6VectorIdED1Ev
FN:34,36,_ZN4lasd6VectorIdED2Ev
FN:34,36,_ZN4lasd6VectorIiED0Ev
FN:34,36,_ZN4lasd6VectorIiED1Ev
FN:34,36,_ZN4lasd6VectorIiED2Ev
FN:39,44,_ZN4lasd6VectorIiEaSERKS1_
FN:54,63,_ZNK4lasd6VectorINSt7__cxx1112basic_stringIcSt11char_traitsIcESaIcEEEEeqERKS7_
FN:54,63,_ZNK4lasd6VectorIdEeqERKS1_
FN:54,63,_ZNK4lasd6VectorIiEeqERKS1_
FN:71,75,_ZN4lasd6VectorINSt7__cxx1112basic_stringIcSt11char_traitsIcESaIcEEEEixEm
FN:71,75,_ZN4lasd6VectorIdEixEm
FN:71,75,_ZN4lasd6VectorIiEixEm
FN:78,82,_ZN4lasd6VectorINSt7__cxx1112basic_stringIcSt11char_traitsIcESaIcEEEE5FrontEv
FN:78,82,_ZN4lasd6VectorIdE5FrontEv
FN:78,82,_ZN4lasd6VectorIiE5FrontEv
FN:85,89,_ZN4lasd6VectorINSt7__cxx1112basic_stringIcSt11char_traitsIcESaIcEEEE4BackEv
FN:85,89,_ZN4lasd6VectorIdE4BackEv
FN:85,89,_ZN4lasd6VectorIiE4BackEv
FN:9,12,_ZN4lasd6VectorINSt7__cxx1112basic_stringIcSt11char_traitsIcESaIcEEEEC1ERKNS_20TraversableContainerIS6_EE
FN:9,12,_ZN4lasd6VectorINSt7__cxx1112basic_stringIcSt11char_traitsIcESaIcEEEEC2ERKNS_20TraversableContainerIS6_EE
FN:9,12,_ZN4lasd6VectorIdEC1ERKNS_20TraversableContainerIdEE
FN:9,12,_ZN4lasd6VectorIdEC2ERKNS_20TraversableContainerIdEE
FN:9,12,_ZN4lasd6VectorIiEC1ERKNS_20TraversableContainerIiEE
FN:9,12,_ZN4lasd6VectorIiEC2ERKNS_20TraversableContainerIiEE
FN:92,96,_ZNK4lasd6VectorINSt7__cxx1112basic_stringIcSt11char_traitsIcESaIcEEEEixEm
FN:92,96,_ZNK4lasd6VectorIdEixEm
FN:92,96,_ZNK4lasd6VectorIiEixEm
FN:99,103,_ZNK4lasd6VectorINSt7__cxx1112basic_stringIcSt11char_traitsIcESaIcEEEE5FrontEv
FN:99,103,_ZNK4lasd6VectorIdE5FrontEv
FN:99,103,_ZNK4lasd6VectorIiE5FrontEv
FNDA:2,_ZNK4lasd6VectorINSt7__cxx1112basic_stringIcSt11char_traitsIcESaIcEEEE4BackEv
FNDA:2,_ZNK4lasd6VectorIdE4BackEv
FNDA:5,_ZNK4lasd6VectorIiE4BackEv
FNDA:2,_ZN4lasd6VectorINSt7__cxx1112basic_stringIcSt11char_traitsIcESaIcEEEE6ResizeEm
FNDA:0,_ZN4lasd6VectorIdE6ResizeEm
FNDA:4,_ZN4lasd6VectorIiE6ResizeEm
FNDA:1,_ZN4lasd6VectorINSt7__cxx1112basic_stringIcSt11char_traitsIcESaIcEEEE5ClearEv
FNDA:0,_ZN4lasd6VectorIdE5ClearEv
FNDA:0,_ZN4lasd6VectorIiE5ClearEv
FNDA:4,_ZN4lasd14SortableVectorINSt7__cxx1112basic_stringIcSt11char_traitsIcESaIcEEEEC1Em
FNDA:4,_ZN4lasd14SortableVectorIdEC1Em
FNDA:4,_ZN4lasd14SortableVectorIiEC1Em
FNDA:2,_ZN4lasd14SortableVectorINSt7__cxx1112basic_stringIcSt11char_traitsIcESaIcEEEEC1ERKNS_20TraversableContainerIS6_EE
FNDA:2,_ZN4lasd14SortableVectorIdEC1ERKNS_20TraversableContainerIdEE
FNDA:2,_ZN4lasd14SortableVectorIiEC1ERKNS_20TraversableContainerIiEE
FNDA:2,_ZN4lasd14SortableVectorINSt7__cxx1112basic_stringIcSt11char_traitsIcESaIcEEEEC1EONS_17MappableContainerIS6_EE
FNDA:4,_ZN4lasd14SortableVectorINSt7__cxx1112basic_stringIcSt11char_traitsIcESaIcEEEEC1ERKS7_
FNDA:2,_ZN4lasd14SortableVectorIdEC1ERKS1_
FNDA:2,_ZN4lasd14SortableVectorIiEC1ERKS1_
FNDA:2,_ZN4lasd14SortableVectorINSt7__cxx1112basic_stringIcSt11char_traitsIcESaIcEEEEC1EOS7_
FNDA:1,_ZN4lasd6VectorINSt7__cxx1112basic_stringIcSt11char_traitsIcESaIcEEEEC1EONS_17MappableContainerIS6_EE
FNDA:3,_ZN4lasd6VectorINSt7__cxx1112basic_stringIcSt11char_traitsIcESaIcEEEEC2EONS_17MappableContainerIS6_EE
FNDA:1,_ZN4lasd6VectorIdEC1EONS_17MappableContainerIdEE
FNDA:2,_ZN4lasd6VectorIdEC2EONS_17MappableContainerIdEE
FNDA:1,_ZN4lasd6VectorIiEC1EONS_17MappableContainerIiEE
FNDA:2,_ZN4lasd6VectorIiEC2EONS_17MappableContainerIiEE
FNDA:2,_ZN4lasd14SortableVectorINSt7__cxx1112basic_stringIcSt11char_traitsIcESaIcEEEEaSEOS7_
FNDA:1,_ZN4lasd6VectorINSt7__cxx1112basic_stringIcSt11char_traitsIcESaIcEEEEC1ERKS7_
FNDA:3,_ZN4lasd6VectorINSt7__cxx1112basic_stringIcSt11char_traitsIcESaIcEEEEC2ERKS7_
FNDA:1,_ZN4lasd6VectorIdEC1ERKS1_
FNDA:3,_ZN4lasd6VectorIdEC2ERKS1_
FNDA:9,_ZN4lasd6VectorIiEC1ERKS1_
FNDA:5,_ZN4lasd6VectorIiEC2ERKS1_
FNDA:1,_ZN4lasd6VectorINSt7__cxx1112basic_stringIcSt11char_traitsIcESaIcEEEEC1EOS7_
FNDA:3,_ZN4lasd6VectorINSt7__cxx1112basic_stringIcSt11char_traitsIcESaIcEEEEC2EOS7_
FNDA:1,_ZN4lasd6VectorIdEC1EOS1_
FNDA:1,_ZN4lasd6VectorIdEC2EOS1_
FNDA:8,_ZN4lasd6VectorIiEC1EOS1_
FNDA:2,_ZN4lasd6VectorIiEC2EOS1_
FNDA:11,_ZN4lasd6VectorINSt7__cxx1112basic_stringIcSt11char_traitsIcESaIcEEEEC1Em
FNDA:14,_ZN4lasd6VectorINSt7__cxx1112basic_stringIcSt11char_traitsIcESaIcEEEEC2Em
FNDA:8,_ZN4lasd6VectorIdEC1Em
FNDA:11,_ZN4lasd6VectorIdEC2Em
FNDA:14,_ZN4lasd6VectorIiEC1Em
FNDA:17,_ZN4lasd6VectorIiEC2Em
FNDA:0,_ZN4lasd6VectorINSt7__cxx1112basic_stringIcSt11char_traitsIcESaIcEEEED0Ev
FNDA:11,_ZN4lasd6VectorINSt7__cxx1112basic_stringIcSt11char_traitsIcESaIcEEEED1Ev
FNDA:28,_ZN4lasd6VectorINSt7__cxx1112basic_stringIcSt11char_traitsIcESaIcEEEED2Ev
FNDA:0,_ZN4lasd6VectorIdED0Ev
FNDA:10,_ZN4lasd6VectorIdED1Ev
FNDA:23,_ZN4lasd6VectorIdED2Ev
FNDA:7,_ZN4lasd6VectorIiED0Ev
FNDA:31,_ZN4lasd6VectorIiED1Ev
FNDA:63,_ZN4lasd6VectorIiED2Ev
FNDA:7,_ZN4lasd6VectorIiEaSERKS1_
FNDA:10,_ZNK4lasd6VectorINSt7__cxx1112basic_stringIcSt11char_traitsIcESaIcEEEEeqERKS7_
FNDA:8,_ZNK4lasd6VectorIdEeqERKS1_
FNDA:14,_ZNK4lasd6VectorIiEeqERKS1_
FNDA:178,_ZN4lasd6VectorINSt7__cxx1112basic_stringIcSt11char_traitsIcESaIcEEEEixEm
FNDA:123,_ZN4lasd6VectorIdEixEm
FNDA:382,_ZN4lasd6VectorIiEixEm
FNDA:0,_ZN4lasd6VectorINSt7__cxx1112basic_stringIcSt11char_traitsIcESaIcEEEE5FrontEv
FNDA:0,_ZN4lasd6VectorIdE5FrontEv
FNDA:9,_ZN4lasd6VectorIiE5FrontEv
FNDA:0,_ZN4lasd6VectorINSt7__cxx1112basic_stringIcSt11char_traitsIcESaIcEEEE4BackEv
FNDA:0,_ZN4lasd6VectorIdE4BackEv
FNDA:9,_ZN4lasd6VectorIiE4BackEv
FNDA:1,_ZN4lasd6VectorINSt7__cxx1112basic_stringIcSt11char_traitsIcESaIcEEEEC1ERKNS_20TraversableContainerIS6_EE
FNDA:7,_ZN4lasd6VectorINSt7__cxx1112basic_stringIcSt11char_traitsIcESaIcEEEEC2ERKNS_20TraversableContainerIS6_EE
FNDA:1,_ZN4lasd6VectorIdEC1ERKNS_20TraversableContainerIdEE
FNDA:5,_ZN4lasd6VectorIdEC2ERKNS_20TraversableContainerIdEE
FNDA:1,_ZN4lasd6VectorIiEC1ERKNS_20TraversableContainerIiEE
FNDA:11,_ZN4lasd6VectorIiEC2ERKNS_20TraversableContainerIiEE
FNDA:679,_ZNK4lasd6VectorINSt7__cxx1112basic_stringIcSt11char_traitsIcESaIcEEEEixEm
FNDA:321,_ZNK4lasd6VectorIdEixEm
FNDA:1227,_ZNK4lasd6VectorIiEixEm
FNDA:2,_ZNK4lasd6VectorINSt7__cxx1112basic_stringIcSt11char_traitsIcESaIcEEEE5FrontEv
FNDA:2,_ZNK4lasd6VectorIdE5FrontEv
FNDA:5,_ZNK4lasd6VectorIiE5FrontEv
FNF:79
FNH:70
DA:3,75
DA:4,75
DA:5,595
DA:6,75
DA:9,26
DA:10,26
DA:11,108
DA:12,26
DA:15,10
DA:16,10
DA:17,38
DA:18,10
DA:21,22
DA:22,22
DA:23,37
DA:24,142
DA:25,22
DA:28,16
DA:29,16
DA:31,16
DA:34,173
DA:35,295
DA:36,205
DA:39,7
DA:40,7
DA:41,7
DA:42,7
DA:43,7
DA:48,10
DA:54,32
DA:55,32
DA:56,153
DA:57,125
DA:67,4
DA:71,683
DA:72,683
DA:73,677
DA:74,30
DA:78,9
DA:79,9
DA:80,8
DA:81,1
DA:85,9
DA:86,9
DA:87,8
DA:88,1
DA:92,2227
DA:93,2227
DA:94,2225
DA:95,10
DA:99,9
DA:100,9
DA:101,8
DA:102,1
DA:106,9
DA:107,9
DA:108,8
DA:109,1
DA:113,6
DA:114,6
DA:115,6
DA:116,22
DA:118,6
DA:120,19
DA:121,13
DA:124,6
DA:125,6
DA:127,6
DA:130,1
DA:131,15
DA:132,13
DA:133,4
DA:134,1
DA:137,12
DA:140,6
DA:143,2
DA:146,8
DA:149,2
DA:158,2
DA:159,2
DA:160,2
LF:81
LH:81
end_of_record
TN:
SF:/home/trialshock/Scrivania/Uni/LASD_24-25/secondaConsegna/vector/vector.hpp
FN:14,14,_ZN4lasd6VectorINSt7__cxx1112basic_stringIcSt11char_traitsIcESaIcEEEEC1Ev
FN:14,14,_ZN4lasd6VectorINSt7__cxx1112basic_stringIcSt11char_traitsIcESaIcEEEEC2Ev
FN:14,14,_ZN4lasd6VectorIdEC1Ev
FN:14,14,_ZN4lasd6VectorIdEC2Ev
FN:14,14,_ZN4lasd6VectorIiEC1Ev
FN:14,14,_ZN4lasd6VectorIiEC2Ev
FN:61,61,_ZN4lasd14SortableVectorIiEC1Ev
FN:75,75,_ZN4lasd14SortableVectorINSt7__cxx1112basic_stringIcSt11char_traitsIcESaIcEEEED0Ev
FN:75,75,_ZN4lasd14SortableVectorINSt7__cxx1112basic_stringIcSt11char_traitsIcESaIcEEEED1Ev
FN:75,75,_ZN4lasd14SortableVectorIdED0Ev
FN:75,75,_ZN4lasd14SortableVectorIdED1Ev
FN:75,75,_ZN4lasd14SortableVectorIiED0Ev
FN:75,75,_ZN4lasd14SortableVectorIiED1Ev
FNDA:1,_ZN4lasd6VectorINSt7__cxx1112basic_stringIcSt11char_traitsIcESaIcEEEEC1Ev
FNDA:11,_ZN4lasd6VectorINSt7__cxx1112basic_stringIcSt11char_traitsIcESaIcEEEEC2Ev
FNDA:2,_ZN4lasd6VectorIdEC1Ev
FNDA:12,_ZN4lasd6VectorIdEC2Ev
FNDA:4,_ZN4lasd6VectorIiEC1Ev
FNDA:44,_ZN4lasd6VectorIiEC2Ev
FNDA:2,_ZN4lasd14SortableVectorIiEC1Ev
FNDA:0,_ZN4lasd14SortableVectorINSt7__cxx1112basic_stringIcSt11char_traitsIcESaIcEEEED0Ev
FNDA:14,_ZN4lasd14SortableVectorINSt7__cxx1112basic_stringIcSt11char_traitsIcESaIcEEEED1Ev
FNDA:0,_ZN4lasd14SortableVectorIdED0Ev
FNDA:8,_ZN4lasd14SortableVectorIdED1Ev
FNDA:0,_ZN4lasd14SortableVectorIiED0Ev
FNDA:6,_ZN4lasd14SortableVectorIiED1Ev
FNF:13
FNH:10
DA:14,74
DA:61,2
DA:75,28
LF:3
LH:3
end_of_record
TN:
SF:/home/trialshock/Scrivania/Uni/LASD_24-25/secondaConsegna/zlasdtest/container/container.cpp
FN:12,18,_Z5EmptyRjS_RKN4lasd9ContainerEb
FN:20,26,_Z4SizeRjS_RKN4lasd9ContainerEbm
FN:32,34,_Z10FoldParityRKiS0_
FN:36,40,_Z21FoldStringConcatenateRKNSt7__cxx1112basic_stringIcSt11char_traitsIcESaIcEEES6_
FN:46,48,_Z15MapStringAppendRNSt7__cxx1112basic_stringIcSt11char_traitsIcESaIcEEERKS4_
FN:50,52,_Z23MapStringNonEmptyAppendRNSt7__cxx1112basic_stringIcSt11char_traitsIcESaIcEEERKS4_
FNDA:66,_Z5EmptyRjS_RKN4lasd9ContainerEb
FNDA:86,_Z4SizeRjS_RKN4lasd9ContainerEbm
FNDA:0,_Z10FoldParityRKiS0_
FNDA:534,_Z21FoldStringConcatenateRKNSt7__cxx1112basic_stringIcSt11char_traitsIcESaIcEEES6_
FNDA:68,_Z15MapStringAppendRNSt7__cxx1112basic_stringIcSt11char_traitsIcESaIcEEERKS4_
FNDA:0,_Z23MapStringNonEmptyAppendRNSt7__cxx1112basic_stringIcSt11char_traitsIcESaIcEEERKS4_
FNF:6
FNH:4
DA:12,66
DA:14,66
DA:15,236
DA:16,66
DA:17,66
DA:18,66
DA:20,86
DA:22,86
DA:23,344
DA:24,86
DA:25,86
DA:26,86
DA:32,0
DA:33,0
DA:36,534
DA:39,534
DA:46,68
DA:48,68
DA:50,0
DA:51,0
DA:52,0
LF:21
LH:16
end_of_record
TN:
SF:/home/trialshock/Scrivania/Uni/LASD_24-25/secondaConsegna/zlasdtest/container/dictionary.hpp
FN:257,272,_Z3MinIiEvRjS0_RN4lasd26OrderedDictionaryContainerIT_EEbRKS3_
FN:275,291,_Z9RemoveMinIiEvRjS0_RN4lasd26OrderedDictionaryContainerIT_EEb
FN:294,309,_Z10MinNRemoveIiEvRjS0_RN4lasd26OrderedDictionaryContainerIT_EEbRKS3_
FN:312,327,_Z3MaxIiEvRjS0_RN4lasd26OrderedDictionaryContainerIT_EEbRKS3_
FN:330,346,_Z9RemoveMaxIiEvRjS0_RN4lasd26OrderedDictionaryContainerIT_EEb
FN:349,364,_Z10MaxNRemoveIiEvRjS0_RN4lasd26OrderedDictionaryContainerIT_EEbRKS3_
FN:367,382,_Z11PredecessorIiEvRjS0_RN4lasd26OrderedDictionaryContainerIT_EEbRKS3_S7_
FN:385,401,_Z17RemovePredecessorIiEvRjS0_RN4lasd26OrderedDictionaryContainerIT_EEbRKS3_
FN:404,419,_Z18PredecessorNRemoveIiEvRjS0_RN4lasd26OrderedDictionaryContainerIT_EEbRKS3_S7_
FN:422,437,_Z9SuccessorIiEvRjS0_RN4lasd26OrderedDictionaryContainerIT_EEbRKS3_S7_
FN:459,474,_Z16SuccessorNRemoveIiEvRjS0_RN4lasd26OrderedDictionaryContainerIT_EEbRKS3_S7_
FN:60,73,_Z7InsertCIdEvRjS0_RN4lasd19DictionaryContainerIT_EEbRKS3_
FN:60,73,_Z7InsertCIiEvRjS0_RN4lasd19DictionaryContainerIT_EEbRKS3_
FN:93,106,_Z6RemoveIiEvRjS0_RN4lasd19DictionaryContainerIT_EEbRKS3_
FNDA:12,_Z3MinIiEvRjS0_RN4lasd26OrderedDictionaryContainerIT_EEbRKS3_
FNDA:4,_Z9RemoveMinIiEvRjS0_RN4lasd26OrderedDictionaryContainerIT_EEb
FNDA:4,_Z10MinNRemoveIiEvRjS0_RN4lasd26OrderedDictionaryContainerIT_EEbRKS3_
FNDA:16,_Z3MaxIiEvRjS0_RN4lasd26OrderedDictionaryContainerIT_EEbRKS3_
FNDA:4,_Z9RemoveMaxIiEvRjS0_RN4lasd26OrderedDictionaryContainerIT_EEb
FNDA:4,_Z10MaxNRemoveIiEvRjS0_RN4lasd26OrderedDictionaryContainerIT_EEbRKS3_
FNDA:8,_Z11PredecessorIiEvRjS0_RN4lasd26OrderedDictionaryContainerIT_EEbRKS3_S7_
FNDA:4,_Z17RemovePredecessorIiEvRjS0_RN4lasd26OrderedDictionaryContainerIT_EEbRKS3_
FNDA:4,_Z18PredecessorNRemoveIiEvRjS0_RN4lasd26OrderedDictionaryContainerIT_EEbRKS3_S7_
FNDA:8,_Z9SuccessorIiEvRjS0_RN4lasd26OrderedDictionaryContainerIT_EEbRKS3_S7_
FNDA:4,_Z16SuccessorNRemoveIiEvRjS0_RN4lasd26OrderedDictionaryContainerIT_EEbRKS3_S7_
FNDA:48,_Z7InsertCIdEvRjS0_RN4lasd19DictionaryContainerIT_EEbRKS3_
FNDA:24,_Z7InsertCIiEvRjS0_RN4lasd19DictionaryContainerIT_EEbRKS3_
FNDA:12,_Z6RemoveIiEvRjS0_RN4lasd19DictionaryContainerIT_EEbRKS3_
FNF:14
FNH:14
DA:60,72
DA:61,72
DA:64,216
DA:65,72
DA:66,72
DA:68,0
DA:70,0
DA:72,72
DA:73,72
DA:93,12
DA:94,12
DA:97,36
DA:98,16
DA:99,12
DA:101,0
DA:103,0
DA:105,12
DA:106,12
DA:257,12
DA:259,12
DA:261,36
DA:262,12
DA:264,0
DA:265,0
DA:267,0
DA:269,0
DA:271,12
DA:272,12
DA:275,4
DA:277,4
DA:279,8
DA:280,4
DA:281,4
DA:283,0
DA:284,0
DA:286,0
DA:288,0
DA:290,4
DA:291,4
DA:294,4
DA:296,4
DA:298,12
DA:299,4
DA:301,0
DA:302,0
DA:304,0
DA:306,0
DA:308,4
DA:309,4
DA:312,16
DA:314,16
DA:316,48
DA:317,16
DA:319,0
DA:320,0
DA:322,0
DA:324,0
DA:326,16
DA:327,16
DA:330,4
DA:332,4
DA:334,8
DA:335,4
DA:336,4
DA:338,0
DA:339,0
DA:341,0
DA:343,0
DA:345,4
DA:346,4
DA:349,4
DA:351,4
DA:353,12
DA:354,4
DA:356,0
DA:357,0
DA:359,0
DA:361,0
DA:363,4
DA:364,4
DA:367,8
DA:369,8
DA:371,32
DA:372,8
DA:374,0
DA:375,0
DA:377,0
DA:379,0
DA:381,8
DA:382,8
DA:385,4
DA:387,4
DA:389,16
DA:390,4
DA:391,4
DA:393,0
DA:394,0
DA:396,0
DA:398,0
DA:400,4
DA:401,4
DA:404,4
DA:406,4
DA:408,16
DA:409,4
DA:411,0
DA:412,0
DA:414,0
DA:416,0
DA:418,4
DA:419,4
DA:422,8
DA:424,8
DA:426,32
DA:427,8
DA:429,0
DA:430,0
DA:432,0
DA:434,0
DA:436,8
DA:437,8
DA:459,4
DA:461,4
DA:463,16
DA:464,4
DA:466,0
DA:467,0
DA:469,0
DA:471,0
DA:473,4
DA:474,4
LF:131
LH:83
end_of_record
TN:
SF:/home/trialshock/Scrivania/Uni/LASD_24-25/secondaConsegna/zlasdtest/container/linear.hpp
FN:117,133,_Z8SetFrontIiEvRjS0_RN4lasd22MutableLinearContainerIT_EEbRKS3_
FN:12,23,_Z11EqualLinearINSt7__cxx1112basic_stringIcSt11char_traitsIcESaIcEEEEvRjS6_RKN4lasd15LinearContainerIT_EESC_b
FN:12,23,_Z11EqualLinearIdEvRjS0_RKN4lasd15LinearContainerIT_EES6_b
FN:12,23,_Z11EqualLinearIiEvRjS0_RKN4lasd15LinearContainerIT_EES6_b
FN:136,152,_Z7SetBackIiEvRjS0_RN4lasd22MutableLinearContainerIT_EEbRKS3_
FN:26,37,_Z14NonEqualLinearIdEvRjS0_RKN4lasd15LinearContainerIT_EES6_b
FN:26,37,_Z14NonEqualLinearIiEvRjS0_RKN4lasd15LinearContainerIT_EES6_b
FN:40,55,_Z5GetAtIiEvRjS0_RKN4lasd15LinearContainerIT_EEbRKmRKS3_
FN:58,73,_Z8GetFrontINSt7__cxx1112basic_stringIcSt11char_traitsIcESaIcEEEEvRjS6_RKN4lasd15LinearContainerIT_EEbRKS9_
FN:58,73,_Z8GetFrontIdEvRjS0_RKN4lasd15LinearContainerIT_EEbRKS3_
FN:58,73,_Z8GetFrontIiEvRjS0_RKN4lasd15LinearContainerIT_EEbRKS3_
FN:76,91,_Z7GetBackINSt7__cxx1112basic_stringIcSt11char_traitsIcESaIcEEEEvRjS6_RKN4lasd15LinearContainerIT_EEbRKS9_
FN:76,91,_Z7GetBackIdEvRjS0_RKN4lasd15LinearContainerIT_EEbRKS3_
FN:76,91,_Z7GetBackIiEvRjS0_RKN4lasd15LinearContainerIT_EEbRKS3_
FN:98,114,_Z5SetAtINSt7__cxx1112basic_stringIcSt11char_traitsIcESaIcEEEEvRjS6_RN4lasd22MutableLinearContainerIT_EEbRKmRKS9_
FN:98,114,_Z5SetAtIdEvRjS0_RN4lasd22MutableLinearContainerIT_EEbRKmRKS3_
FN:98,114,_Z5SetAtIiEvRjS0_RN4lasd22MutableLinearContainerIT_EEbRKmRKS3_
FNDA:4,_Z8SetFrontIiEvRjS0_RN4lasd22MutableLinearContainerIT_EEbRKS3_
FNDA:4,_Z11EqualLinearINSt7__cxx1112basic_stringIcSt11char_traitsIcESaIcEEEEvRjS6_RKN4lasd15LinearContainerIT_EESC_b
FNDA:4,_Z11EqualLinearIdEvRjS0_RKN4lasd15LinearContainerIT_EES6_b
FNDA:40,_Z11EqualLinearIiEvRjS0_RKN4lasd15LinearContainerIT_EES6_b
FNDA:4,_Z7SetBackIiEvRjS0_RN4lasd22MutableLinearContainerIT_EEbRKS3_
FNDA:2,_Z14NonEqualLinearIdEvRjS0_RKN4lasd15LinearContainerIT_EES6_b
FNDA:2,_Z14NonEqualLinearIiEvRjS0_RKN4lasd15LinearContainerIT_EES6_b
FNDA:10,_Z5GetAtIiEvRjS0_RKN4lasd15LinearContainerIT_EEbRKmRKS3_
FNDA:4,_Z8GetFrontINSt7__cxx1112basic_stringIcSt11char_traitsIcESaIcEEEEvRjS6_RKN4lasd15LinearContainerIT_EEbRKS9_
FNDA:4,_Z8GetFrontIdEvRjS0_RKN4lasd15LinearContainerIT_EEbRKS3_
FNDA:8,_Z8GetFrontIiEvRjS0_RKN4lasd15LinearContainerIT_EEbRKS3_
FNDA:4,_Z7GetBackINSt7__cxx1112basic_stringIcSt11char_traitsIcESaIcEEEEvRjS6_RKN4lasd15LinearContainerIT_EEbRKS9_
FNDA:4,_Z7GetBackIdEvRjS0_RKN4lasd15LinearContainerIT_EEbRKS3_
FNDA:8,_Z7GetBackIiEvRjS0_RKN4lasd15LinearContainerIT_EEbRKS3_
FNDA:80,_Z5SetAtINSt7__cxx1112basic_stringIcSt11char_traitsIcESaIcEEEEvRjS6_RN4lasd22MutableLinearContainerIT_EEbRKmRKS9_
FNDA:68,_Z5SetAtIdEvRjS0_RN4lasd22MutableLinearContainerIT_EEbRKmRKS3_
FNDA:114,_Z5SetAtIiEvRjS0_RN4lasd22MutableLinearContainerIT_EEbRKmRKS3_
FNF:17
FNH:17
DA:12,48
DA:14,48
DA:16,164
DA:17,48
DA:19,0
DA:20,0
DA:22,48
DA:23,48
DA:26,4
DA:28,4
DA:30,16
DA:31,4
DA:33,0
DA:34,0
DA:36,4
DA:37,4
DA:40,10
DA:42,10
DA:44,40
DA:45,8
DA:47,4
DA:48,4
DA:50,0
DA:52,0
DA:54,10
DA:55,10
DA:58,16
DA:60,16
DA:62,52
DA:63,12
DA:65,8
DA:66,8
DA:68,0
DA:70,0
DA:72,16
DA:73,16
DA:76,16
DA:78,16
DA:80,52
DA:81,12
DA:83,8
DA:84,8
DA:86,0
DA:88,0
DA:90,16
DA:91,16
DA:98,262
DA:100,262
DA:102,1048
DA:103,262
DA:104,258
DA:106,8
DA:107,8
DA:109,0
DA:111,0
DA:113,262
DA:114,262
DA:117,4
DA:119,4
DA:121,12
DA:122,4
DA:123,4
DA:125,0
DA:126,0
DA:128,0
DA:130,0
DA:132,4
DA:133,4
DA:136,4
DA:138,4
DA:140,12
DA:141,4
DA:142,4
DA:144,0
DA:145,0
DA:147,0
DA:149,0
DA:151,4
DA:152,4
LF:79
LH:59
end_of_record
TN:
SF:/home/trialshock/Scrivania/Uni/LASD_24-25/secondaConsegna/zlasdtest/container/mappable.hpp
FN:27,29,_Z12MapIncrementIiEvRT_
FN:57,59,_Z9MapInvertIiEvRT_
FN:67,69,_Z15MapParityInvertIiEvRT_
FN:80,92,_Z11MapPreOrderINSt7__cxx1112basic_stringIcSt11char_traitsIcESaIcEEEEvRjS6_RN4lasd25PreOrderMappableContainerIT_EEbNS7_17MappableContainerIS9_E6MapFunE
FN:80,92,_Z11MapPreOrderIiEvRjS0_RN4lasd25PreOrderMappableContainerIT_EEbNS1_17MappableContainerIS3_E6MapFunE
FN:99,111,_Z12MapPostOrderIiEvRjS0_RN4lasd26PostOrderMappableContainerIT_EEbNS1_17MappableContainerIS3_E6MapFunE
FNDA:12,_Z12MapIncrementIiEvRT_
FNDA:56,_Z9MapInvertIiEvRT_
FNDA:56,_Z15MapParityInvertIiEvRT_
FNDA:10,_Z11MapPreOrderINSt7__cxx1112basic_stringIcSt11char_traitsIcESaIcEEEEvRjS6_RN4lasd25PreOrderMappableContainerIT_EEbNS7_17MappableContainerIS9_E6MapFunE
FNDA:8,_Z11MapPreOrderIiEvRjS0_RN4lasd25PreOrderMappableContainerIT_EEbNS1_17MappableContainerIS3_E6MapFunE
FNDA:4,_Z12MapPostOrderIiEvRjS0_RN4lasd26PostOrderMappableContainerIT_EEbNS1_17MappableContainerIS3_E6MapFunE
FNF:6
FNH:6
DA:27,12
DA:28,12
DA:29,12
DA:57,56
DA:58,56
DA:59,56
DA:67,56
DA:68,56
DA:69,56
DA:80,18
DA:82,18
DA:84,36
DA:85,36
DA:86,18
DA:88,0
DA:89,0
DA:91,18
DA:92,18
DA:99,4
DA:101,4
DA:103,8
DA:104,8
DA:105,4
DA:107,0
DA:108,0
DA:110,4
DA:111,4
LF:27
LH:23
end_of_record
TN:
SF:/home/trialshock/Scrivania/Uni/LASD_24-25/secondaConsegna/zlasdtest/container/testable.hpp
FN:12,18,_Z6ExistsINSt7__cxx1112basic_stringIcSt11char_traitsIcESaIcEEEEvRjS6_RKN4lasd17TestableContainerIT_EEbRKS9_
FN:12,18,_Z6ExistsIdEvRjS0_RKN4lasd17TestableContainerIT_EEbRKS3_
FN:12,18,_Z6ExistsIiEvRjS0_RKN4lasd17TestableContainerIT_EEbRKS3_
FNDA:8,_Z6ExistsINSt7__cxx1112basic_stringIcSt11char_traitsIcESaIcEEEEvRjS6_RKN4lasd17TestableContainerIT_EEbRKS9_
FNDA:4,_Z6ExistsIdEvRjS0_RKN4lasd17TestableContainerIT_EEbRKS3_
FNDA:40,_Z6ExistsIiEvRjS0_RKN4lasd17TestableContainerIT_EEbRKS3_
FNF:3
FNH:3
DA:12,52
DA:14,52
DA:15,230
DA:16,52
DA:17,52
DA:18,52
LF:6
LH:6
end_of_record
TN:
SF:/home/trialshock/Scrivania/Uni/LASD_24-25/secondaConsegna/zlasdtest/container/traversable.hpp
FN:101,113,_Z17TraversePostOrderINSt7__cxx1112basic_stringIcSt11char_traitsIcESaIcEEEEvRjS6_RKN4lasd29PostOrderTraversableContainerIT_EEbNS7_20TraversableContainerIS9_E11TraverseFunE
FN:101,113,_Z17TraversePostOrderIdEvRjS0_RKN4lasd29PostOrderTraversableContainerIT_EEbNS1_20TraversableContainerIS3_E11TraverseFunE
FN:101,113,_Z17TraversePostOrderIiEvRjS0_RKN4lasd29PostOrderTraversableContainerIT_EEbNS1_20TraversableContainerIS3_E11TraverseFunE
FN:116,129,_Z13FoldPostOrderINSt7__cxx1112basic_stringIcSt11char_traitsIcESaIcEEES5_EvRjS6_RKN4lasd29PostOrderTraversableContainerIT_EEbNS7_20TraversableContainerIS9_E7FoldFunIT0_EERKSG_SJ_
FN:116,129,_Z13FoldPostOrderIddEvRjS0_RKN4lasd29PostOrderTraversableContainerIT_EEbNS1_20TraversableContainerIS3_E7FoldFunIT0_EERKSA_SD_
FN:116,129,_Z13FoldPostOrderIiiEvRjS0_RKN4lasd29PostOrderTraversableContainerIT_EEbNS1_20TraversableContainerIS3_E7FoldFunIT0_EERKSA_SD_
FN:12,24,_Z8TraverseIiEvRjS0_RKN4lasd20TraversableContainerIT_EEbNS4_11TraverseFunE
FN:43,45,_Z13TraversePrintINSt7__cxx1112basic_stringIcSt11char_traitsIcESaIcEEEEvRKT_
FN:43,45,_Z13TraversePrintIdEvRKT_
FN:43,45,_Z13TraversePrintIiEvRKT_
FN:48,50,_Z7FoldAddIdET_RKS0_S2_
FN:48,50,_Z7FoldAddIiET_RKS0_S2_
FN:53,55,_Z12FoldMultiplyIdET_RKS0_S2_
FN:53,55,_Z12FoldMultiplyIiET_RKS0_S2_
FN:66,78,_Z16TraversePreOrderINSt7__cxx1112basic_stringIcSt11char_traitsIcESaIcEEEEvRjS6_RKN4lasd28PreOrderTraversableContainerIT_EEbNS7_20TraversableContainerIS9_E11TraverseFunE
FN:66,78,_Z16TraversePreOrderIdEvRjS0_RKN4lasd28PreOrderTraversableContainerIT_EEbNS1_20TraversableContainerIS3_E11TraverseFunE
FN:66,78,_Z16TraversePreOrderIiEvRjS0_RKN4lasd28PreOrderTraversableContainerIT_EEbNS1_20TraversableContainerIS3_E11TraverseFunE
FN:81,94,_Z12FoldPreOrderINSt7__cxx1112basic_stringIcSt11char_traitsIcESaIcEEES5_EvRjS6_RKN4lasd28PreOrderTraversableContainerIT_EEbNS7_20TraversableContainerIS9_E7FoldFunIT0_EERKSG_SJ_
FN:81,94,_Z12FoldPreOrderIddEvRjS0_RKN4lasd28PreOrderTraversableContainerIT_EEbNS1_20TraversableContainerIS3_E7FoldFunIT0_EERKSA_SD_
FN:81,94,_Z12FoldPreOrderIiiEvRjS0_RKN4lasd28PreOrderTraversableContainerIT_EEbNS1_20TraversableContainerIS3_E7FoldFunIT0_EERKSA_SD_
FNDA:22,_Z17TraversePostOrderINSt7__cxx1112basic_stringIcSt11char_traitsIcESaIcEEEEvRjS6_RKN4lasd29PostOrderTraversableContainerIT_EEbNS7_20TraversableContainerIS9_E11TraverseFunE
FNDA:20,_Z17TraversePostOrderIdEvRjS0_RKN4lasd29PostOrderTraversableContainerIT_EEbNS1_20TraversableContainerIS3_E11TraverseFunE
FNDA:72,_Z17TraversePostOrderIiEvRjS0_RKN4lasd29PostOrderTraversableContainerIT_EEbNS1_20TraversableContainerIS3_E11TraverseFunE
FNDA:26,_Z13FoldPostOrderINSt7__cxx1112basic_stringIcSt11char_traitsIcESaIcEEES5_EvRjS6_RKN4lasd29PostOrderTraversableContainerIT_EEbNS7_20TraversableContainerIS9_E7FoldFunIT0_EERKSG_SJ_
FNDA:4,_Z13FoldPostOrderIddEvRjS0_RKN4lasd29PostOrderTraversableContainerIT_EEbNS1_20TraversableContainerIS3_E7FoldFunIT0_EERKSA_SD_
FNDA:24,_Z13FoldPostOrderIiiEvRjS0_RKN4lasd29PostOrderTraversableContainerIT_EEbNS1_20TraversableContainerIS3_E7FoldFunIT0_EERKSA_SD_
FNDA:12,_Z8TraverseIiEvRjS0_RKN4lasd20TraversableContainerIT_EEbNS4_11TraverseFunE
FNDA:644,_Z13TraversePrintINSt7__cxx1112basic_stringIcSt11char_traitsIcESaIcEEEEvRKT_
FNDA:508,_Z13TraversePrintIdEvRKT_
FNDA:1280,_Z13TraversePrintIiEvRKT_
FNDA:14,_Z7FoldAddIdET_RKS0_S2_
FNDA:288,_Z7FoldAddIiET_RKS0_S2_
FNDA:14,_Z12FoldMultiplyIdET_RKS0_S2_
FNDA:26,_Z12FoldMultiplyIiET_RKS0_S2_
FNDA:46,_Z16TraversePreOrderINSt7__cxx1112basic_stringIcSt11char_traitsIcESaIcEEEEvRjS6_RKN4lasd28PreOrderTraversableContainerIT_EEbNS7_20TraversableContainerIS9_E11TraverseFunE
FNDA:30,_Z16TraversePreOrderIdEvRjS0_RKN4lasd28PreOrderTraversableContainerIT_EEbNS1_20TraversableContainerIS3_E11TraverseFunE
FNDA:88,_Z16TraversePreOrderIiEvRjS0_RKN4lasd28PreOrderTraversableContainerIT_EEbNS1_20TraversableContainerIS3_E11TraverseFunE
FNDA:34,_Z12FoldPreOrderINSt7__cxx1112basic_stringIcSt11char_traitsIcESaIcEEES5_EvRjS6_RKN4lasd28PreOrderTraversableContainerIT_EEbNS7_20TraversableContainerIS9_E7FoldFunIT0_EERKSG_SJ_
FNDA:4,_Z12FoldPreOrderIddEvRjS0_RKN4lasd28PreOrderTraversableContainerIT_EEbNS1_20TraversableContainerIS3_E7FoldFunIT0_EERKSA_SD_
FNDA:28,_Z12FoldPreOrderIiiEvRjS0_RKN4lasd28PreOrderTraversableContainerIT_EEbNS1_20TraversableContainerIS3_E7FoldFunIT0_EERKSA_SD_
FNF:20
FNH:20
DA:12,12
DA:14,12
DA:16,24
DA:17,24
DA:18,12
DA:20,0
DA:21,0
DA:23,12
DA:24,12
DA:43,2432
DA:44,2432
DA:45,2432
DA:48,302
DA:49,302
DA:53,40
DA:54,40
DA:66,164
DA:68,164
DA:70,328
DA:71,328
DA:72,164
DA:74,0
DA:75,0
DA:77,164
DA:78,164
DA:81,66
DA:83,66
DA:85,132
DA:86,200
DA:87,66
DA:88,66
DA:90,0
DA:91,0
DA:93,66
DA:94,66
DA:101,114
DA:103,114
DA:105,228
DA:106,228
DA:107,114
DA:109,0
DA:110,0
DA:112,114
DA:113,114
DA:116,54
DA:118,54
DA:120,108
DA:121,160
DA:122,54
DA:123,54
DA:125,0
DA:126,0
DA:128,54
DA:129,54
LF:54
LH:44
end_of_record
TN:
SF:/home/trialshock/Scrivania/Uni/LASD_24-25/secondaConsegna/zlasdtest/exercise1a/fulltest.cpp
FN:6,7,_Z18testFullExercise1ARjS_
FNDA:2,_Z18testFullExercise1ARjS_
FNF:1
FNH:1
DA:6,2
DA:7,2
LF:2
LH:2
end_of_record
TN:
SF:/home/trialshock/Scrivania/Uni/LASD_24-25/secondaConsegna/zlasdtest/exercise1a/simpletest.cpp
FN:112,162,_Z17stestVectorStringRjS_
FN:129,129,_ZZ17stestVectorStringRjS_ENKUlRNSt7__cxx1112basic_stringIcSt11char_traitsIcESaIcEEEE_clES6_
FN:138,138,_ZZ17stestVectorStringRjS_ENKUlRNSt7__cxx1112basic_stringIcSt11char_traitsIcESaIcEEEE0_clES6_
FN:164,172,_Z11stestVectorRjS_
FN:176,260,_Z12stestListIntRjS_
FN:22,81,_Z14stestVectorIntRjS_
FN:262,297,_Z15stestListDoubleRjS_
FN:299,343,_Z15stestListStringRjS_
FN:315,315,_ZZ15stestListStringRjS_ENKUlRNSt7__cxx1112basic_stringIcSt11char_traitsIcESaIcEEEE_clES6_
FN:345,353,_Z9stestListRjS_
FN:357,390,_Z18stestVectorListIntRjS_
FN:392,425,_Z21stestVectorListDoubleRjS_
FN:427,484,_Z21stestVectorListStringRjS_
FN:486,494,_Z15stestVectorListRjS_
FN:498,503,_Z20testSimpleExercise1ARjS_
FN:83,110,_Z17stestVectorDoubleRjS_
FNDA:2,_Z17stestVectorStringRjS_
FNDA:4,_ZZ17stestVectorStringRjS_ENKUlRNSt7__cxx1112basic_stringIcSt11char_traitsIcESaIcEEEE_clES6_
FNDA:4,_ZZ17stestVectorStringRjS_ENKUlRNSt7__cxx1112basic_stringIcSt11char_traitsIcESaIcEEEE0_clES6_
FNDA:2,_Z11stestVectorRjS_
FNDA:2,_Z12stestListIntRjS_
FNDA:2,_Z14stestVectorIntRjS_
FNDA:2,_Z15stestListDoubleRjS_
FNDA:2,_Z15stestListStringRjS_
FNDA:4,_ZZ15stestListStringRjS_ENKUlRNSt7__cxx1112basic_stringIcSt11char_traitsIcESaIcEEEE_clES6_
FNDA:2,_Z9stestListRjS_
FNDA:2,_Z18stestVectorListIntRjS_
FNDA:2,_Z21stestVectorListDoubleRjS_
FNDA:2,_Z21stestVectorListStringRjS_
FNDA:2,_Z15stestVectorListRjS_
FNDA:2,_Z20testSimpleExercise1ARjS_
FNDA:2,_Z17stestVectorDoubleRjS_
FNF:16
FNH:16
DA:22,2
DA:23,2
DA:27,2
DA:28,2
DA:30,2
DA:31,2
DA:32,2
DA:33,2
DA:35,2
DA:37,4
DA:38,4
DA:40,4
DA:41,4
DA:42,2
DA:44,2
DA:45,2
DA:46,2
DA:48,2
DA:49,2
DA:50,2
DA:52,2
DA:53,2
DA:55,2
DA:56,2
DA:58,2
DA:60,4
DA:61,4
DA:62,4
DA:63,4
DA:67,4
DA:68,4
DA:70,2
DA:71,4
DA:72,2
DA:74,0
DA:75,0
DA:77,0
DA:78,4
DA:79,2
DA:80,2
DA:81,2
DA:83,2
DA:84,2
DA:87,2
DA:88,2
DA:89,2
DA:91,2
DA:92,2
DA:93,2
DA:95,2
DA:96,2
DA:98,2
DA:100,4
DA:101,4
DA:102,2
DA:103,0
DA:104,0
DA:106,0
DA:107,4
DA:108,2
DA:109,2
DA:110,2
DA:112,2
DA:113,2
DA:116,2
DA:118,2
DA:119,2
DA:121,4
DA:122,4
DA:124,4
DA:125,4
DA:127,4
DA:129,12
DA:130,4
DA:131,8
DA:132,8
DA:134,4
DA:136,2
DA:137,2
DA:138,12
DA:139,2
DA:141,2
DA:142,8
DA:144,2
DA:145,8
DA:147,8
DA:148,4
DA:149,2
DA:150,4
DA:152,2
DA:153,2
DA:154,2
DA:155,0
DA:156,0
DA:158,0
DA:159,4
DA:160,2
DA:161,2
DA:162,2
DA:164,2
DA:165,2
DA:166,2
DA:167,2
DA:168,2
DA:169,2
DA:170,2
DA:171,4
DA:172,2
DA:176,2
DA:177,2
DA:180,2
DA:181,2
DA:182,2
DA:184,2
DA:185,2
DA:187,2
DA:189,4
DA:190,4
DA:191,4
DA:192,4
DA:194,2
DA:195,2
DA:197,2
DA:198,2
DA:199,2
DA:200,2
DA:201,2
DA:203,2
DA:204,2
DA:205,2
DA:206,2
DA:208,2
DA:209,2
DA:211,2
DA:213,4
DA:214,4
DA:215,4
DA:216,4
DA:218,2
DA:219,2
DA:220,4
DA:222,2
DA:223,2
DA:224,4
DA:225,2
DA:227,2
DA:228,2
DA:229,2
DA:230,2
DA:231,2
DA:233,2
DA:234,2
DA:236,4
DA:237,4
DA:239,2
DA:240,4
DA:241,4
DA:243,2
DA:244,2
DA:245,2
DA:246,2
DA:247,4
DA:250,2
DA:251,2
DA:252,2
DA:253,0
DA:254,0
DA:256,0
DA:257,4
DA:258,2
DA:259,2
DA:260,2
DA:262,2
DA:263,2
DA:266,2
DA:267,2
DA:268,2
DA:270,2
DA:271,2
DA:275,2
DA:276,2
DA:277,2
DA:278,2
DA:280,2
DA:281,2
DA:283,2
DA:285,4
DA:286,4
DA:287,4
DA:288,4
DA:289,2
DA:290,0
DA:291,0
DA:293,0
DA:294,4
DA:295,2
DA:296,2
DA:297,2
DA:299,2
DA:300,2
DA:303,2
DA:304,2
DA:305,2
DA:307,4
DA:308,4
DA:310,4
DA:311,4
DA:313,4
DA:315,12
DA:316,4
DA:317,8
DA:318,8
DA:320,4
DA:322,2
DA:323,2
DA:324,2
DA:325,2
DA:327,2
DA:328,2
DA:329,4
DA:330,4
DA:331,2
DA:334,6
DA:335,2
DA:336,0
DA:337,0
DA:339,0
DA:340,4
DA:341,2
DA:342,2
DA:343,2
DA:345,2
DA:346,2
DA:347,2
DA:348,2
DA:349,2
DA:350,2
DA:351,2
DA:352,4
DA:353,2
DA:357,2
DA:358,2
DA:361,2
DA:362,2
DA:363,2
DA:364,2
DA:366,2
DA:367,2
DA:368,2
DA:369,2
DA:371,2
DA:373,2
DA:374,2
DA:375,2
DA:376,2
DA:378,2
DA:379,2
DA:380,2
DA:381,2
DA:382,2
DA:383,0
DA:384,0
DA:386,0
DA:387,4
DA:388,2
DA:389,2
DA:390,2
DA:392,2
DA:393,2
DA:396,2
DA:397,2
DA:398,2
DA:399,2
DA:401,2
DA:402,2
DA:403,2
DA:404,2
DA:406,2
DA:408,2
DA:409,2
DA:410,2
DA:411,2
DA:413,2
DA:414,2
DA:415,2
DA:416,2
DA:417,2
DA:418,0
DA:419,0
DA:421,0
DA:422,4
DA:423,2
DA:424,2
DA:425,2
DA:427,2
DA:428,2
DA:431,2
DA:432,4
DA:433,4
DA:434,4
DA:436,2
DA:437,4
DA:438,4
DA:439,4
DA:441,2
DA:443,2
DA:444,2
DA:445,2
DA:446,2
DA:448,2
DA:449,2
DA:450,2
DA:451,2
DA:453,2
DA:454,4
DA:455,2
DA:456,4
DA:458,2
DA:459,2
DA:460,2
DA:461,4
DA:462,4
DA:463,2
DA:465,2
DA:466,4
DA:467,2
DA:468,4
DA:470,2
DA:471,2
DA:472,2
DA:473,4
DA:474,4
DA:475,2
DA:476,2
DA:477,0
DA:478,0
DA:480,0
DA:481,4
DA:482,2
DA:483,2
DA:484,2
DA:486,2
DA:487,2
DA:488,2
DA:489,2
DA:490,2
DA:491,2
DA:492,2
DA:493,4
DA:494,2
DA:498,2
DA:499,2
DA:500,2
DA:501,2
DA:502,4
DA:503,2
LF:356
LH:329
end_of_record
TN:
SF:/home/trialshock/Scrivania/Uni/LASD_24-25/secondaConsegna/zlasdtest/exercise1b/fulltest.cpp
FN:6,7,_Z18testFullExercise1BRjS_
FNDA:2,_Z18testFullExercise1BRjS_
FNF:1
FNH:1
DA:6,2
DA:7,2
LF:2
LH:2
end_of_record
TN:
SF:/home/trialshock/Scrivania/Uni/LASD_24-25/secondaConsegna/zlasdtest/exercise1b/simpletest.cpp
FN:120,252,_Z11stestSetIntRjS_
FN:25,118,_Z11stestSetIntRN4lasd3SetIiEERjS3_
FN:254,354,_Z13stestSetFloatRjS_
FN:356,370,_Z14stestSetStringRN4lasd3SetINSt7__cxx1112basic_stringIcSt11char_traitsIcESaIcEEEEERjS9_
FN:372,405,_Z14stestSetStringRjS_
FN:409,414,_Z20testSimpleExercise1BRjS_
FNDA:2,_Z11stestSetIntRjS_
FNDA:4,_Z11stestSetIntRN4lasd3SetIiEERjS3_
FNDA:2,_Z13stestSetFloatRjS_
FNDA:4,_Z14stestSetStringRN4lasd3SetINSt7__cxx1112basic_stringIcSt11char_traitsIcESaIcEEEEERjS9_
FNDA:2,_Z14stestSetStringRjS_
FNDA:2,_Z20testSimpleExercise1BRjS_
FNF:6
FNH:6
DA:25,4
DA:26,4
DA:29,4
DA:30,4
DA:32,4
DA:34,8
DA:35,8
DA:37,4
DA:38,4
DA:40,4
DA:41,4
DA:43,4
DA:44,4
DA:46,4
DA:47,4
DA:48,4
DA:50,4
DA:52,4
DA:54,4
DA:56,4
DA:58,4
DA:60,4
DA:61,4
DA:62,4
DA:63,4
DA:64,4
DA:66,8
DA:67,8
DA:69,4
DA:70,4
DA:72,8
DA:73,8
DA:75,4
DA:76,4
DA:78,4
DA:79,4
DA:81,8
DA:83,4
DA:84,4
DA:86,4
DA:87,4
DA:89,4
DA:90,4
DA:92,8
DA:94,4
DA:95,4
DA:97,8
DA:99,8
DA:100,8
DA:102,8
DA:103,8
DA:105,4
DA:107,4
DA:108,4
DA:111,0
DA:112,0
DA:114,0
DA:115,8
DA:116,4
DA:117,4
DA:118,4
DA:120,2
DA:121,2
DA:124,2
DA:125,2
DA:126,2
DA:127,2
DA:128,2
DA:129,2
DA:130,2
DA:131,2
DA:136,2
DA:137,2
DA:139,2
DA:140,2
DA:141,2
DA:145,2
DA:146,2
DA:148,2
DA:150,2
DA:152,2
DA:154,2
DA:156,2
DA:158,2
DA:160,2
DA:162,2
DA:164,2
DA:166,2
DA:168,2
DA:169,2
DA:171,2
DA:172,2
DA:174,2
DA:176,2
DA:177,2
DA:179,2
DA:180,2
DA:182,2
DA:184,4
DA:185,4
DA:187,2
DA:189,2
DA:193,2
DA:194,2
DA:196,2
DA:198,2
DA:200,2
DA:202,2
DA:204,2
DA:206,2
DA:208,2
DA:210,2
DA:212,2
DA:214,2
DA:216,2
DA:217,2
DA:219,2
DA:220,2
DA:222,2
DA:224,2
DA:225,2
DA:227,2
DA:228,2
DA:230,2
DA:232,4
DA:233,4
DA:235,2
DA:237,2
DA:241,2
DA:242,2
DA:244,2
DA:245,0
DA:246,0
DA:248,0
DA:249,4
DA:250,2
DA:251,2
DA:252,2
DA:254,2
DA:255,2
DA:258,2
DA:259,2
DA:260,2
DA:261,2
DA:262,2
DA:263,2
DA:264,2
DA:266,4
DA:270,2
DA:272,2
DA:273,2
DA:275,4
DA:276,4
DA:278,2
DA:280,2
DA:281,2
DA:282,2
DA:283,2
DA:284,2
DA:285,2
DA:287,2
DA:288,2
DA:290,2
DA:291,2
DA:293,2
DA:294,2
DA:295,2
DA:297,2
DA:298,2
DA:299,2
DA:301,2
DA:302,2
DA:306,2
DA:308,2
DA:309,2
DA:311,4
DA:312,4
DA:314,2
DA:316,2
DA:317,2
DA:318,2
DA:319,2
DA:320,2
DA:321,2
DA:324,2
DA:325,2
DA:327,2
DA:328,2
DA:330,2
DA:331,2
DA:332,2
DA:334,2
DA:335,2
DA:336,2
DA:338,2
DA:339,2
DA:343,2
DA:344,2
DA:346,2
DA:347,0
DA:348,0
DA:350,0
DA:351,4
DA:352,2
DA:353,2
DA:354,2
DA:356,4
DA:357,4
DA:359,8
DA:360,16
DA:361,16
DA:363,0
DA:364,0
DA:366,0
DA:367,8
DA:368,4
DA:369,4
DA:370,4
DA:372,2
DA:373,2
DA:376,2
DA:377,4
DA:378,4
DA:379,4
DA:380,4
DA:381,4
DA:386,2
DA:387,2
DA:389,2
DA:390,2
DA:391,2
DA:395,2
DA:397,2
DA:398,0
DA:399,0
DA:401,0
DA:402,4
DA:403,2
DA:404,2
DA:405,2
DA:409,2
DA:410,2
DA:411,2
DA:412,2
DA:413,4
DA:414,2
LF:246
LH:231
end_of_record
TN:
SF:/home/trialshock/Scrivania/Uni/LASD_24-25/secondaConsegna/zlasdtest/exercise2a/fulltest.cpp
FN:6,7,_Z18testFullExercise2ARjS_
FNDA:2,_Z18testFullExercise2ARjS_
FNF:1
FNH:1
DA:6,2
DA:7,2
LF:2
LH:2
end_of_record
TN:
SF:/home/trialshock/Scrivania/Uni/LASD_24-25/secondaConsegna/zlasdtest/exercise2a/simpletest.cpp
FN:175,219,_Z15stestHeapDoubleRjS_
FN:221,280,_Z15stestHeapStringRjS_
FN:247,247,_ZZ15stestHeapStringRjS_ENKUlRNSt7__cxx1112basic_stringIcSt11char_traitsIcESaIcEEEE_clES6_
FN:248,248,_ZZ15stestHeapStringRjS_ENKUlRNSt7__cxx1112basic_stringIcSt11char_traitsIcESaIcEEEE0_clES6_
FN:25,173,_Z12stestHeapIntRjS_
FN:284,289,_Z20testSimpleExercise2ARjS_
FNDA:2,_Z15stestHeapDoubleRjS_
FNDA:2,_Z15stestHeapStringRjS_
FNDA:28,_ZZ15stestHeapStringRjS_ENKUlRNSt7__cxx1112basic_stringIcSt11char_traitsIcESaIcEEEE_clES6_
FNDA:28,_ZZ15stestHeapStringRjS_ENKUlRNSt7__cxx1112basic_stringIcSt11char_traitsIcESaIcEEEE0_clES6_
FNDA:2,_Z12stestHeapIntRjS_
FNDA:2,_Z20testSimpleExercise2ARjS_
FNF:6
FNH:6
DA:25,2
DA:26,2
DA:30,2
DA:31,2
DA:32,2
DA:33,2
DA:34,2
DA:35,2
DA:36,2
DA:37,2
DA:38,2
DA:39,2
DA:40,2
DA:41,2
DA:42,2
DA:43,2
DA:44,2
DA:46,2
DA:48,4
DA:49,4
DA:50,4
DA:52,2
DA:54,2
DA:55,2
DA:56,2
DA:57,2
DA:58,2
DA:59,2
DA:60,2
DA:61,2
DA:62,2
DA:63,2
DA:64,2
DA:65,2
DA:66,2
DA:67,2
DA:69,2
DA:71,2
DA:73,2
DA:77,2
DA:79,2
DA:81,2
DA:83,2
DA:85,2
DA:86,2
DA:88,2
DA:90,2
DA:91,2
DA:93,2
DA:94,2
DA:96,2
DA:97,2
DA:101,2
DA:102,2
DA:106,2
DA:107,2
DA:109,2
DA:111,2
DA:112,2
DA:113,2
DA:115,4
DA:116,4
DA:118,4
DA:119,4
DA:121,4
DA:122,4
DA:124,2
DA:126,4
DA:127,4
DA:129,4
DA:130,4
DA:132,4
DA:133,4
DA:135,2
DA:137,4
DA:139,4
DA:140,4
DA:142,4
DA:143,4
DA:145,2
DA:147,4
DA:149,2
DA:153,2
DA:155,2
DA:157,2
DA:159,2
DA:163,2
DA:165,2
DA:166,0
DA:167,0
DA:169,0
DA:170,4
DA:171,2
DA:172,2
DA:173,2
DA:175,2
DA:176,2
DA:180,2
DA:181,2
DA:182,2
DA:183,2
DA:184,2
DA:185,2
DA:186,2
DA:187,2
DA:188,2
DA:189,2
DA:190,2
DA:191,2
DA:192,2
DA:193,2
DA:194,2
DA:196,2
DA:198,4
DA:199,4
DA:203,4
DA:204,4
DA:206,2
DA:208,4
DA:209,4
DA:211,2
DA:212,0
DA:213,0
DA:215,0
DA:216,4
DA:217,2
DA:218,2
DA:219,2
DA:221,2
DA:222,2
DA:226,2
DA:227,4
DA:228,4
DA:229,4
DA:230,4
DA:231,4
DA:232,4
DA:233,4
DA:234,4
DA:235,4
DA:236,4
DA:237,4
DA:238,4
DA:239,4
DA:240,4
DA:242,2
DA:244,4
DA:245,4
DA:247,60
DA:248,60
DA:250,4
DA:251,4
DA:253,8
DA:254,8
DA:258,4
DA:259,4
DA:261,8
DA:262,8
DA:264,2
DA:266,4
DA:267,4
DA:269,8
DA:270,8
DA:272,2
DA:273,0
DA:274,0
DA:276,0
DA:277,4
DA:278,2
DA:279,2
DA:280,2
DA:284,2
DA:285,2
DA:286,2
DA:287,2
DA:288,4
DA:289,2
LF:177
LH:168
end_of_record
TN:
SF:/home/trialshock/Scrivania/Uni/LASD_24-25/secondaConsegna/zlasdtest/exercise2b/fulltest.cpp
FN:6,7,_Z18testFullExercise2BRjS_
FNDA:2,_Z18testFullExercise2BRjS_
FNF:1
FNH:1
DA:6,2
DA:7,2
LF:2
LH:2
end_of_record
TN:
SF:/home/trialshock/Scrivania/Uni/LASD_24-25/secondaConsegna/zlasdtest/exercise2b/simpletest.cpp
FN:231,295,_Z13stestPQDoubleRjS_
FN:25,229,_Z10stestPQIntRjS_
FN:297,386,_Z13stestPQStringRjS_
FN:390,395,_Z20testSimpleExercise2BRjS_
FNDA:2,_Z13stestPQDoubleRjS_
FNDA:2,_Z10stestPQIntRjS_
FNDA:2,_Z13stestPQStringRjS_
FNDA:2,_Z20testSimpleExercise2BRjS_
FNF:4
FNH:4
DA:25,2
DA:26,2
DA:30,2
DA:31,2
DA:32,2
DA:33,2
DA:34,2
DA:35,2
DA:36,2
DA:37,2
DA:38,2
DA:39,2
DA:40,2
DA:41,2
DA:42,2
DA:43,2
DA:44,2
DA:46,2
DA:48,4
DA:49,4
DA:50,4
DA:52,2
DA:53,2
DA:55,4
DA:56,4
DA:58,2
DA:59,2
DA:60,2
DA:61,2
DA:62,2
DA:64,4
DA:65,4
DA:67,2
DA:69,4
DA:70,4
DA:72,2
DA:73,2
DA:74,2
DA:75,2
DA:76,2
DA:78,4
DA:79,4
DA:81,2
DA:83,4
DA:84,4
DA:86,2
DA:87,2
DA:88,2
DA:89,2
DA:90,2
DA:91,2
DA:93,4
DA:94,4
DA:96,2
DA:98,4
DA:99,4
DA:101,2
DA:102,2
DA:104,4
DA:105,4
DA:107,2
DA:109,4
DA:110,4
DA:112,2
DA:113,2
DA:115,2
DA:117,2
DA:118,2
DA:119,2
DA:121,2
DA:122,2
DA:123,2
DA:124,2
DA:125,2
DA:126,2
DA:127,2
DA:128,2
DA:130,4
DA:131,4
DA:133,2
DA:135,4
DA:136,4
DA:138,2
DA:139,2
DA:141,4
DA:142,4
DA:144,2
DA:146,4
DA:147,4
DA:149,2
DA:151,4
DA:152,4
DA:154,2
DA:156,4
DA:157,4
DA:159,4
DA:160,4
DA:162,2
DA:163,2
DA:165,2
DA:167,2
DA:168,2
DA:170,2
DA:171,2
DA:173,2
DA:175,2
DA:176,2
DA:177,2
DA:178,2
DA:180,2
DA:182,2
DA:183,2
DA:185,2
DA:187,2
DA:189,2
DA:191,2
DA:193,4
DA:194,4
DA:196,2
DA:198,4
DA:199,4
DA:201,2
DA:203,4
DA:204,4
DA:206,2
DA:208,2
DA:209,2
DA:211,2
DA:213,2
DA:214,2
DA:216,2
DA:217,2
DA:219,2
DA:221,2
DA:222,0
DA:223,0
DA:225,0
DA:226,4
DA:227,2
DA:228,2
DA:229,2
DA:231,2
DA:232,2
DA:236,2
DA:237,2
DA:238,2
DA:239,2
DA:240,2
DA:241,2
DA:242,2
DA:243,2
DA:244,2
DA:245,2
DA:246,2
DA:247,2
DA:248,2
DA:249,2
DA:250,2
DA:252,2
DA:254,4
DA:255,4
DA:257,2
DA:258,2
DA:260,4
DA:261,4
DA:263,2
DA:264,2
DA:265,2
DA:266,2
DA:267,2
DA:269,4
DA:270,4
DA:272,2
DA:274,4
DA:275,4
DA:277,2
DA:279,4
DA:280,4
DA:282,2
DA:284,4
DA:285,4
DA:287,2
DA:288,0
DA:289,0
DA:291,0
DA:292,4
DA:293,2
DA:294,2
DA:295,2
DA:297,2
DA:298,2
DA:302,2
DA:303,4
DA:304,4
DA:305,4
DA:306,4
DA:307,4
DA:308,4
DA:309,4
DA:310,4
DA:311,4
DA:312,4
DA:313,4
DA:314,4
DA:315,4
DA:316,4
DA:318,2
DA:320,4
DA:321,4
DA:323,8
DA:324,8
DA:326,4
DA:327,2
DA:329,4
DA:330,4
DA:332,4
DA:333,2
DA:334,4
DA:335,4
DA:336,4
DA:337,4
DA:338,4
DA:340,4
DA:341,4
DA:343,8
DA:344,8
DA:346,4
DA:348,4
DA:349,4
DA:351,8
DA:352,8
DA:354,4
DA:356,4
DA:357,4
DA:359,8
DA:360,8
DA:362,4
DA:364,4
DA:365,4
DA:367,8
DA:368,8
DA:370,4
DA:372,4
DA:373,4
DA:375,8
DA:376,8
DA:378,2
DA:379,0
DA:380,0
DA:382,0
DA:383,4
DA:384,2
DA:385,2
DA:386,2
DA:390,2
DA:391,2
DA:392,2
DA:393,2
DA:394,4
DA:395,2
LF:260
LH:251
end_of_record
TN:
SF:/home/trialshock/Scrivania/Uni/LASD_24-25/secondaConsegna/zlasdtest/heap/heap.hpp
FN:12,18,_Z6IsHeapIiEvRjS0_RKN4lasd4HeapIT_EEb
FNDA:14,_Z6IsHeapIiEvRjS0_RKN4lasd4HeapIT_EEb
FNF:1
FNH:1
DA:12,14
DA:14,14
DA:15,50
DA:16,14
DA:17,14
DA:18,14
LF:6
LH:6
end_of_record
TN:
SF:/home/trialshock/Scrivania/Uni/LASD_24-25/secondaConsegna/zlasdtest/list/list.hpp
FN:10,22,_Z13InsertAtFrontINSt7__cxx1112basic_stringIcSt11char_traitsIcESaIcEEEEvRjS6_RN4lasd4ListIT_EEbRKS9_
FN:10,22,_Z13InsertAtFrontIdEvRjS0_RN4lasd4ListIT_EEbRKS3_
FN:10,22,_Z13InsertAtFrontIiEvRjS0_RN4lasd4ListIT_EEbRKS3_
FN:114,125,_Z9EqualListINSt7__cxx1112basic_stringIcSt11char_traitsIcESaIcEEEEvRjS6_RKN4lasd4ListIT_EESC_b
FN:114,125,_Z9EqualListIdEvRjS0_RKN4lasd4ListIT_EES6_b
FN:114,125,_Z9EqualListIiEvRjS0_RKN4lasd4ListIT_EES6_b
FN:128,139,_Z12NonEqualListINSt7__cxx1112basic_stringIcSt11char_traitsIcESaIcEEEEvRjS6_RKN4lasd4ListIT_EESC_b
FN:128,139,_Z12NonEqualListIiEvRjS0_RKN4lasd4ListIT_EES6_b
FN:25,41,_Z15RemoveFromFrontINSt7__cxx1112basic_stringIcSt11char_traitsIcESaIcEEEEvRjS6_RN4lasd4ListIT_EEb
FN:25,41,_Z15RemoveFromFrontIiEvRjS0_RN4lasd4ListIT_EEb
FN:44,59,_Z12FrontNRemoveIiEvRjS0_RN4lasd4ListIT_EEbRKS3_
FN:62,74,_Z12InsertAtBackINSt7__cxx1112basic_stringIcSt11char_traitsIcESaIcEEEEvRjS6_RN4lasd4ListIT_EEbRKS9_
FN:62,74,_Z12InsertAtBackIdEvRjS0_RN4lasd4ListIT_EEbRKS3_
FN:62,74,_Z12InsertAtBackIiEvRjS0_RN4lasd4ListIT_EEbRKS3_
FNDA:8,_Z13InsertAtFrontINSt7__cxx1112basic_stringIcSt11char_traitsIcESaIcEEEEvRjS6_RN4lasd4ListIT_EEbRKS9_
FNDA:10,_Z13InsertAtFrontIdEvRjS0_RN4lasd4ListIT_EEbRKS3_
FNDA:16,_Z13InsertAtFrontIiEvRjS0_RN4lasd4ListIT_EEbRKS3_
FNDA:12,_Z9EqualListINSt7__cxx1112basic_stringIcSt11char_traitsIcESaIcEEEEvRjS6_RKN4lasd4ListIT_EESC_b
FNDA:4,_Z9EqualListIdEvRjS0_RKN4lasd4ListIT_EES6_b
FNDA:8,_Z9EqualListIiEvRjS0_RKN4lasd4ListIT_EES6_b
FNDA:4,_Z12NonEqualListINSt7__cxx1112basic_stringIcSt11char_traitsIcESaIcEEEEvRjS6_RKN4lasd4ListIT_EESC_b
FNDA:4,_Z12NonEqualListIiEvRjS0_RKN4lasd4ListIT_EES6_b
FNDA:2,_Z15RemoveFromFrontINSt7__cxx1112basic_stringIcSt11char_traitsIcESaIcEEEEvRjS6_RN4lasd4ListIT_EEb
FNDA:8,_Z15RemoveFromFrontIiEvRjS0_RN4lasd4ListIT_EEb
FNDA:6,_Z12FrontNRemoveIiEvRjS0_RN4lasd4ListIT_EEbRKS3_
FNDA:6,_Z12InsertAtBackINSt7__cxx1112basic_stringIcSt11char_traitsIcESaIcEEEEvRjS6_RN4lasd4ListIT_EEbRKS9_
FNDA:20,_Z12InsertAtBackIdEvRjS0_RN4lasd4ListIT_EEbRKS3_
FNDA:10,_Z12InsertAtBackIiEvRjS0_RN4lasd4ListIT_EEbRKS3_
FNF:14
FNH:14
DA:10,34
DA:12,34
DA:14,102
DA:15,34
DA:16,34
DA:18,0
DA:19,0
DA:21,34
DA:22,34
DA:25,10
DA:27,10
DA:29,32
DA:30,8
DA:31,8
DA:33,4
DA:34,4
DA:36,0
DA:38,0
DA:40,10
DA:41,10
DA:44,6
DA:46,6
DA:48,18
DA:49,4
DA:51,4
DA:52,4
DA:54,0
DA:56,0
DA:58,6
DA:59,6
DA:62,36
DA:64,36
DA:66,108
DA:67,36
DA:68,36
DA:70,0
DA:71,0
DA:73,36
DA:74,36
DA:114,24
DA:116,24
DA:118,74
DA:119,24
DA:121,0
DA:122,0
DA:124,24
DA:125,24
DA:128,8
DA:130,8
DA:132,24
DA:133,8
DA:135,0
DA:136,0
DA:138,8
DA:139,8
LF:55
LH:43
end_of_record
TN:
SF:/home/trialshock/Scrivania/Uni/LASD_24-25/secondaConsegna/zlasdtest/pq/pq.hpp
FN:12,23,_Z3TipINSt7__cxx1112basic_stringIcSt11char_traitsIcESaIcEEEEvRjS6_RN4lasd2PQIT_EEbRKS9_
FN:12,23,_Z3TipIdEvRjS0_RN4lasd2PQIT_EEbRKS3_
FN:12,23,_Z3TipIiEvRjS0_RN4lasd2PQIT_EEbRKS3_
FN:26,38,_Z9RemoveTipINSt7__cxx1112basic_stringIcSt11char_traitsIcESaIcEEEEvRjS6_RN4lasd2PQIT_EEb
FN:26,38,_Z9RemoveTipIdEvRjS0_RN4lasd2PQIT_EEb
FN:26,38,_Z9RemoveTipIiEvRjS0_RN4lasd2PQIT_EEb
FN:41,52,_Z10TipNRemoveINSt7__cxx1112basic_stringIcSt11char_traitsIcESaIcEEEEvRjS6_RN4lasd2PQIT_EEbRKS9_
FN:41,52,_Z10TipNRemoveIdEvRjS0_RN4lasd2PQIT_EEbRKS3_
FN:41,52,_Z10TipNRemoveIiEvRjS0_RN4lasd2PQIT_EEbRKS3_
FN:55,68,_Z6InsertINSt7__cxx1112basic_stringIcSt11char_traitsIcESaIcEEEEvRjS6_RN4lasd2PQIT_EERKS9_
FN:55,68,_Z6InsertIdEvRjS0_RN4lasd2PQIT_EERKS3_
FN:55,68,_Z6InsertIiEvRjS0_RN4lasd2PQIT_EERKS3_
FN:71,85,_Z6ChangeINSt7__cxx1112basic_stringIcSt11char_traitsIcESaIcEEEEvRjS6_RN4lasd2PQIT_EEbmRKS9_
FN:71,85,_Z6ChangeIdEvRjS0_RN4lasd2PQIT_EEbmRKS3_
FN:71,85,_Z6ChangeIiEvRjS0_RN4lasd2PQIT_EEbmRKS3_
FNDA:4,_Z3TipINSt7__cxx1112basic_stringIcSt11char_traitsIcESaIcEEEEvRjS6_RN4lasd2PQIT_EEbRKS9_
FNDA:4,_Z3TipIdEvRjS0_RN4lasd2PQIT_EEbRKS3_
FNDA:8,_Z3TipIiEvRjS0_RN4lasd2PQIT_EEbRKS3_
FNDA:4,_Z9RemoveTipINSt7__cxx1112basic_stringIcSt11char_traitsIcESaIcEEEEvRjS6_RN4lasd2PQIT_EEb
FNDA:4,_Z9RemoveTipIdEvRjS0_RN4lasd2PQIT_EEb
FNDA:10,_Z9RemoveTipIiEvRjS0_RN4lasd2PQIT_EEb
FNDA:6,_Z10TipNRemoveINSt7__cxx1112basic_stringIcSt11char_traitsIcESaIcEEEEvRjS6_RN4lasd2PQIT_EEbRKS9_
FNDA:6,_Z10TipNRemoveIdEvRjS0_RN4lasd2PQIT_EEbRKS3_
FNDA:38,_Z10TipNRemoveIiEvRjS0_RN4lasd2PQIT_EEbRKS3_
FNDA:6,_Z6InsertINSt7__cxx1112basic_stringIcSt11char_traitsIcESaIcEEEEvRjS6_RN4lasd2PQIT_EERKS9_
FNDA:2,_Z6InsertIdEvRjS0_RN4lasd2PQIT_EERKS3_
FNDA:30,_Z6InsertIiEvRjS0_RN4lasd2PQIT_EERKS3_
FNDA:6,_Z6ChangeINSt7__cxx1112basic_stringIcSt11char_traitsIcESaIcEEEEvRjS6_RN4lasd2PQIT_EEbmRKS9_
FNDA:4,_Z6ChangeIdEvRjS0_RN4lasd2PQIT_EEbmRKS3_
FNDA:12,_Z6ChangeIiEvRjS0_RN4lasd2PQIT_EEbmRKS3_
FNF:15
FNH:15
DA:12,16
DA:13,16
DA:16,36
DA:17,16
DA:19,0
DA:20,0
DA:22,16
DA:23,16
DA:26,18
DA:27,18
DA:30,18
DA:31,18
DA:32,16
DA:34,4
DA:35,4
DA:37,18
DA:38,18
DA:41,50
DA:42,50
DA:45,106
DA:46,56
DA:48,0
DA:49,0
DA:51,50
DA:52,50
DA:55,38
DA:56,38
DA:59,76
DA:60,38
DA:63,0
DA:64,0
DA:67,38
DA:68,38
DA:71,22
DA:72,22
DA:75,64
DA:76,20
DA:77,20
DA:80,2
DA:81,6
DA:82,2
DA:84,22
DA:85,22
LF:43
LH:37
end_of_record
TN:
SF:/home/trialshock/Scrivania/Uni/LASD_24-25/secondaConsegna/zlasdtest/set/set.hpp
FN:11,22,_Z11EqualSetLstIdEvRjS0_RKN4lasd6SetLstIT_EES6_b
FN:11,22,_Z11EqualSetLstIiEvRjS0_RKN4lasd6SetLstIT_EES6_b
FN:25,36,_Z14NonEqualSetLstIdEvRjS0_RKN4lasd6SetLstIT_EES6_b
FN:25,36,_Z14NonEqualSetLstIiEvRjS0_RKN4lasd6SetLstIT_EES6_b
FN:41,52,_Z11EqualSetVecIdEvRjS0_RKN4lasd6SetVecIT_EES6_b
FN:41,52,_Z11EqualSetVecIiEvRjS0_RKN4lasd6SetVecIT_EES6_b
FN:55,66,_Z14NonEqualSetVecIdEvRjS0_RKN4lasd6SetVecIT_EES6_b
FN:55,66,_Z14NonEqualSetVecIiEvRjS0_RKN4lasd6SetVecIT_EES6_b
FNDA:4,_Z11EqualSetLstIdEvRjS0_RKN4lasd6SetLstIT_EES6_b
FNDA:10,_Z11EqualSetLstIiEvRjS0_RKN4lasd6SetLstIT_EES6_b
FNDA:4,_Z14NonEqualSetLstIdEvRjS0_RKN4lasd6SetLstIT_EES6_b
FNDA:4,_Z14NonEqualSetLstIiEvRjS0_RKN4lasd6SetLstIT_EES6_b
FNDA:4,_Z11EqualSetVecIdEvRjS0_RKN4lasd6SetVecIT_EES6_b
FNDA:10,_Z11EqualSetVecIiEvRjS0_RKN4lasd6SetVecIT_EES6_b
FNDA:4,_Z14NonEqualSetVecIdEvRjS0_RKN4lasd6SetVecIT_EES6_b
FNDA:4,_Z14NonEqualSetVecIiEvRjS0_RKN4lasd6SetVecIT_EES6_b
FNF:8
FNH:8
DA:11,14
DA:13,14
DA:15,44
DA:16,14
DA:18,0
DA:19,0
DA:21,14
DA:22,14
DA:25,8
DA:27,8
DA:29,28
DA:30,8
DA:32,0
DA:33,0
DA:35,8
DA:36,8
DA:41,14
DA:43,14
DA:45,44
DA:46,14
DA:48,0
DA:49,0
DA:51,14
DA:52,14
DA:55,8
DA:57,8
DA:59,28
DA:60,8
DA:62,0
DA:63,0
DA:65,8
DA:66,8
LF:32
LH:24
end_of_record
TN:
SF:/home/trialshock/Scrivania/Uni/LASD_24-25/secondaConsegna/zlasdtest/test.cpp
FN:16,64,_Z8lasdtestv
FNDA:2,_Z8lasdtestv
FNF:1
FNH:1
DA:16,2
DA:19,2
DA:23,2
DA:24,2
DA:25,2
DA:27,2
DA:28,2
DA:29,2
DA:31,2
DA:32,2
DA:33,2
DA:35,2
DA:36,2
DA:37,2
DA:39,2
DA:44,2
DA:45,2
DA:46,2
DA:48,2
DA:49,2
DA:50,2
DA:52,2
DA:53,2
DA:54,2
DA:56,2
DA:57,2
DA:58,2
DA:60,2
DA:64,2
LF:29
LH:29
end_of_record
TN:
SF:/home/trialshock/Scrivania/Uni/LASD_24-25/secondaConsegna/zlasdtest/vector/vector.hpp
FN:10,21,_Z11EqualVectorINSt7__cxx1112basic_stringIcSt11char_traitsIcESaIcEEEEvRjS6_RKN4lasd6VectorIT_EESC_b
FN:10,21,_Z11EqualVectorIdEvRjS0_RKN4lasd6VectorIT_EES6_b
FN:10,21,_Z11EqualVectorIiEvRjS0_RKN4lasd6VectorIT_EES6_b
FN:24,35,_Z14NonEqualVectorINSt7__cxx1112basic_stringIcSt11char_traitsIcESaIcEEEEvRjS6_RKN4lasd6VectorIT_EESC_b
FNDA:10,_Z11EqualVectorINSt7__cxx1112basic_stringIcSt11char_traitsIcESaIcEEEEvRjS6_RKN4lasd6VectorIT_EESC_b
FNDA:4,_Z11EqualVectorIdEvRjS0_RKN4lasd6VectorIT_EES6_b
FNDA:4,_Z11EqualVectorIiEvRjS0_RKN4lasd6VectorIT_EES6_b
FNDA:2,_Z14NonEqualVectorINSt7__cxx1112basic_stringIcSt11char_traitsIcESaIcEEEEvRjS6_RKN4lasd6VectorIT_EESC_b
FNF:4
FNH:4
DA:10,18
DA:12,18
DA:14,56
DA:15,18
DA:17,0
DA:18,0
DA:20,18
DA:21,18
DA:24,2
DA:26,2
DA:28,6
DA:29,2
DA:31,0
DA:32,0
DA:34,2
DA:35,2
LF:16
LH:12
end_of_record
TN:
SF:/home/trialshock/Scrivania/Uni/LASD_24-25/secondaConsegna/zmytest/test.cpp
FN:1013,1013,_ZZ16testFunzioniListvENKUlRKiE9_clES0_
FN:1071,1071,_ZZ16testFunzioniListvENKUlRKiE10_clES0_
FN:1078,1078,_ZZ16testFunzioniListvENKUlRKiE11_clES0_
FN:1086,1184,_Z18testCasiLimiteListv
FN:1186,1438,_Z21testCostruttoriSetLstIZ6mytestvEUlvE_Z6mytestvEUlvE0_Z6mytestvEUlvE1_EbT_T0_T1_
FN:1273,1273,_ZZ21testCostruttoriSetLstIZ6mytestvEUlvE_Z6mytestvEUlvE0_Z6mytestvEUlvE1_EbT_T0_T1_ENKUlRKiE_clES7_
FN:1276,1276,_ZZ21testCostruttoriSetLstIZ6mytestvEUlvE_Z6mytestvEUlvE0_Z6mytestvEUlvE1_EbT_T0_T1_ENKUlRKiE0_clES7_
FN:1290,1290,_ZZ21testCostruttoriSetLstIZ6mytestvEUlvE_Z6mytestvEUlvE0_Z6mytestvEUlvE1_EbT_T0_T1_ENKUlRKNSt7__cxx1112basic_stringIcSt11char_traitsIcESaIcEEEE_clESD_
FN:1293,1293,_ZZ21testCostruttoriSetLstIZ6mytestvEUlvE_Z6mytestvEUlvE0_Z6mytestvEUlvE1_EbT_T0_T1_ENKUlRKNSt7__cxx1112basic_stringIcSt11char_traitsIcESaIcEEEE0_clESD_
FN:1306,1306,_ZZ21testCostruttoriSetLstIZ6mytestvEUlvE_Z6mytestvEUlvE0_Z6mytestvEUlvE1_EbT_T0_T1_ENKUlRKdE_clES7_
FN:1309,1309,_ZZ21testCostruttoriSetLstIZ6mytestvEUlvE_Z6mytestvEUlvE0_Z6mytestvEUlvE1_EbT_T0_T1_ENKUlRKdE0_clES7_
FN:134,134,_ZZ21testCostruttoriVectorvENKUlRKiE_clES0_
FN:1366,1366,_ZZ21testCostruttoriSetLstIZ6mytestvEUlvE_Z6mytestvEUlvE0_Z6mytestvEUlvE1_EbT_T0_T1_ENKUlRKiE1_clES7_
FN:1369,1369,_ZZ21testCostruttoriSetLstIZ6mytestvEUlvE_Z6mytestvEUlvE0_Z6mytestvEUlvE1_EbT_T0_T1_ENKUlRKiE2_clES7_
FN:1382,1382,_ZZ21testCostruttoriSetLstIZ6mytestvEUlvE_Z6mytestvEUlvE0_Z6mytestvEUlvE1_EbT_T0_T1_ENKUlRKNSt7__cxx1112basic_stringIcSt11char_traitsIcESaIcEEEE1_clESD_
FN:1385,1385,_ZZ21testCostruttoriSetLstIZ6mytestvEUlvE_Z6mytestvEUlvE0_Z6mytestvEUlvE1_EbT_T0_T1_ENKUlRKNSt7__cxx1112basic_stringIcSt11char_traitsIcESaIcEEEE2_clESD_
FN:1398,1398,_ZZ21testCostruttoriSetLstIZ6mytestvEUlvE_Z6mytestvEUlvE0_Z6mytestvEUlvE1_EbT_T0_T1_ENKUlRKdE1_clES7_
FN:1401,1401,_ZZ21testCostruttoriSetLstIZ6mytestvEUlvE_Z6mytestvEUlvE0_Z6mytestvEUlvE1_EbT_T0_T1_ENKUlRKdE2_clES7_
FN:1413,1413,_ZZ21testCostruttoriSetLstIZ6mytestvEUlvE_Z6mytestvEUlvE0_Z6mytestvEUlvE1_EbT_T0_T1_ENKUlRKiE3_clES7_
FN:1423,1423,_ZZ21testCostruttoriSetLstIZ6mytestvEUlvE_Z6mytestvEUlvE0_Z6mytestvEUlvE1_EbT_T0_T1_ENKUlRKNSt7__cxx1112basic_stringIcSt11char_traitsIcESaIcEEEE3_clESD_
FN:143,143,_ZZ21testCostruttoriVectorvENKUlRKNSt7__cxx1112basic_stringIcSt11char_traitsIcESaIcEEEE_clES6_
FN:1433,1433,_ZZ21testCostruttoriSetLstIZ6mytestvEUlvE_Z6mytestvEUlvE0_Z6mytestvEUlvE1_EbT_T0_T1_ENKUlRKdE3_clES7_
FN:1440,1740,_Z18testFunzioniSetLstv
FN:1471,1471,_ZZ18testFunzioniSetLstvENKUlRKiE_clES0_
FN:1482,1482,_ZZ18testFunzioniSetLstvENKUlRKiE0_clES0_
FN:1485,1485,_ZZ18testFunzioniSetLstvENKUlRKiE1_clES0_
FN:1497,1497,_ZZ18testFunzioniSetLstvENKUlRKiE2_clES0_
FN:15,18,_Z20generaStringaCasualeIZ6mytestvEUlvE0_ENSt7__cxx1112basic_stringIcSt11char_traitsIcESaIcEEET_
FN:15,18,_Z20generaStringaCasualeIZ6mytestvEUlvE_ENSt7__cxx1112basic_stringIcSt11char_traitsIcESaIcEEET_
FN:1510,1510,_ZZ18testFunzioniSetLstvENKUlRKiE3_clES0_
FN:1516,1516,_ZZ18testFunzioniSetLstvENKUlRKiE4_clES0_
FN:1519,1519,_ZZ18testFunzioniSetLstvENKUlRKiE5_clES0_
FN:1578,1578,_ZZ18testFunzioniSetLstvENKUlRKiE6_clES0_
FN:158,158,_ZZ21testCostruttoriVectorvENKUlRKdE_clES0_
FN:1581,1581,_ZZ18testFunzioniSetLstvENKUlRKiE7_clES0_
FN:1603,1603,_ZZ18testFunzioniSetLstvENKUlRKiE8_clES0_
FN:1618,1618,_ZZ18testFunzioniSetLstvENKUlRKiE9_clES0_
FN:1634,1634,_ZZ18testFunzioniSetLstvENKUlRKiE10_clES0_
FN:1637,1637,_ZZ18testFunzioniSetLstvENKUlRKiE11_clES0_
FN:1648,1648,_ZZ18testFunzioniSetLstvENKUlRKiE12_clES0_
FN:1651,1651,_ZZ18testFunzioniSetLstvENKUlRKiE13_clES0_
FN:1659,1659,_ZZ18testFunzioniSetLstvENKUlRKiE14_clES0_
FN:1679,1679,_ZZ18testFunzioniSetLstvENKUlRKiE15_clES0_
FN:1682,1682,_ZZ18testFunzioniSetLstvENKUlRKiE16_clES0_
FN:1693,1693,_ZZ18testFunzioniSetLstvENKUlRKiE17_clES0_
FN:1696,1696,_ZZ18testFunzioniSetLstvENKUlRKiE18_clES0_
FN:1703,1703,_ZZ18testFunzioniSetLstvENKUlRKiE19_clES0_
FN:1716,1716,_ZZ18testFunzioniSetLstvENKUlRKiE20_clES0_
FN:1742,2022,_Z20testCasiLimiteSetLstv
FN:1860,1860,_ZZ20testCasiLimiteSetLstvENKUlRKiE_clES0_
FN:1872,1872,_ZZ20testCasiLimiteSetLstvENKUlRKiE0_clES0_
FN:1885,1885,_ZZ20testCasiLimiteSetLstvENKUlRKiE1_clES0_
FN:1898,1898,_ZZ20testCasiLimiteSetLstvENKUlRKiE2_clES0_
FN:1908,1908,_ZZ20testCasiLimiteSetLstvENKUlRKiE3_clES0_
FN:195,195,_ZZ21testCostruttoriVectorvENKUlRKiE0_clES0_
FN:1956,1956,_ZZ20testCasiLimiteSetLstvENKUlRKiE4_clES0_
FN:1968,1968,_ZZ20testCasiLimiteSetLstvENKUlRKiE5_clES0_
FN:1981,1981,_ZZ20testCasiLimiteSetLstvENKUlRKiE6_clES0_
FN:1998,1998,_ZZ20testCasiLimiteSetLstvENKUlRKiE7_clES0_
FN:20,22,_Z15stampaRisultatiRKNSt7__cxx1112basic_stringIcSt11char_traitsIcESaIcEEEb
FN:2010,2010,_ZZ20testCasiLimiteSetLstvENKUlRKiE8_clES0_
FN:2024,2273,_Z21testCostruttoriSetVecIZ6mytestvEUlvE_Z6mytestvEUlvE0_Z6mytestvEUlvE1_EbT_T0_T1_
FN:204,204,_ZZ21testCostruttoriVectorvENKUlRKNSt7__cxx1112basic_stringIcSt11char_traitsIcESaIcEEEE0_clES6_
FN:2111,2111,_ZZ21testCostruttoriSetVecIZ6mytestvEUlvE_Z6mytestvEUlvE0_Z6mytestvEUlvE1_EbT_T0_T1_ENKUlRKiE_clES7_
FN:2114,2114,_ZZ21testCostruttoriSetVecIZ6mytestvEUlvE_Z6mytestvEUlvE0_Z6mytestvEUlvE1_EbT_T0_T1_ENKUlRKiE0_clES7_
FN:2127,2127,_ZZ21testCostruttoriSetVecIZ6mytestvEUlvE_Z6mytestvEUlvE0_Z6mytestvEUlvE1_EbT_T0_T1_ENKUlRKNSt7__cxx1112basic_stringIcSt11char_traitsIcESaIcEEEE_clESD_
FN:2130,2130,_ZZ21testCostruttoriSetVecIZ6mytestvEUlvE_Z6mytestvEUlvE0_Z6mytestvEUlvE1_EbT_T0_T1_ENKUlRKNSt7__cxx1112basic_stringIcSt11char_traitsIcESaIcEEEE0_clESD_
FN:2143,2143,_ZZ21testCostruttoriSetVecIZ6mytestvEUlvE_Z6mytestvEUlvE0_Z6mytestvEUlvE1_EbT_T0_T1_ENKUlRKdE_clES7_
FN:2146,2146,_ZZ21testCostruttoriSetVecIZ6mytestvEUlvE_Z6mytestvEUlvE0_Z6mytestvEUlvE1_EbT_T0_T1_ENKUlRKdE0_clES7_
FN:219,219,_ZZ21testCostruttoriVectorvENKUlRKdE0_clES0_
FN:2202,2202,_ZZ21testCostruttoriSetVecIZ6mytestvEUlvE_Z6mytestvEUlvE0_Z6mytestvEUlvE1_EbT_T0_T1_ENKUlRKiE1_clES7_
FN:2205,2205,_ZZ21testCostruttoriSetVecIZ6mytestvEUlvE_Z6mytestvEUlvE0_Z6mytestvEUlvE1_EbT_T0_T1_ENKUlRKiE2_clES7_
FN:2218,2218,_ZZ21testCostruttoriSetVecIZ6mytestvEUlvE_Z6mytestvEUlvE0_Z6mytestvEUlvE1_EbT_T0_T1_ENKUlRKNSt7__cxx1112basic_stringIcSt11char_traitsIcESaIcEEEE1_clESD_
FN:2221,2221,_ZZ21testCostruttoriSetVecIZ6mytestvEUlvE_Z6mytestvEUlvE0_Z6mytestvEUlvE1_EbT_T0_T1_ENKUlRKNSt7__cxx1112basic_stringIcSt11char_traitsIcESaIcEEEE2_clESD_
FN:2234,2234,_ZZ21testCostruttoriSetVecIZ6mytestvEUlvE_Z6mytestvEUlvE0_Z6mytestvEUlvE1_EbT_T0_T1_ENKUlRKdE1_clES7_
FN:2237,2237,_ZZ21testCostruttoriSetVecIZ6mytestvEUlvE_Z6mytestvEUlvE0_Z6mytestvEUlvE1_EbT_T0_T1_ENKUlRKdE2_clES7_
FN:2248,2248,_ZZ21testCostruttoriSetVecIZ6mytestvEUlvE_Z6mytestvEUlvE0_Z6mytestvEUlvE1_EbT_T0_T1_ENKUlRKiE3_clES7_
FN:2258,2258,_ZZ21testCostruttoriSetVecIZ6mytestvEUlvE_Z6mytestvEUlvE0_Z6mytestvEUlvE1_EbT_T0_T1_ENKUlRKNSt7__cxx1112basic_stringIcSt11char_traitsIcESaIcEEEE3_clESD_
FN:2268,2268,_ZZ21testCostruttoriSetVecIZ6mytestvEUlvE_Z6mytestvEUlvE0_Z6mytestvEUlvE1_EbT_T0_T1_ENKUlRKdE3_clES7_
FN:2275,2535,_Z18testFunzioniSetVecv
FN:2306,2306,_ZZ18testFunzioniSetVecvENKUlRKiE_clES0_
FN:2317,2317,_ZZ18testFunzioniSetVecvENKUlRKiE0_clES0_
FN:2320,2320,_ZZ18testFunzioniSetVecvENKUlRKiE1_clES0_
FN:2332,2332,_ZZ18testFunzioniSetVecvENKUlRKiE2_clES0_
FN:2382,2382,_ZZ18testFunzioniSetVecvENKUlRKiE3_clES0_
FN:2398,2398,_ZZ18testFunzioniSetVecvENKUlRKiE4_clES0_
FN:24,281,_Z21testCostruttoriVectorv
FN:2401,2401,_ZZ18testFunzioniSetVecvENKUlRKiE5_clES0_
FN:2412,2412,_ZZ18testFunzioniSetVecvENKUlRKiE6_clES0_
FN:2415,2415,_ZZ18testFunzioniSetVecvENKUlRKiE7_clES0_
FN:2422,2422,_ZZ18testFunzioniSetVecvENKUlRKiE8_clES0_
FN:2437,2437,_ZZ18testFunzioniSetVecvENKUlRKiE9_clES0_
FN:2440,2440,_ZZ18testFunzioniSetVecvENKUlRKiE10_clES0_
FN:2451,2451,_ZZ18testFunzioniSetVecvENKUlRKiE11_clES0_
FN:2454,2454,_ZZ18testFunzioniSetVecvENKUlRKiE12_clES0_
FN:2461,2461,_ZZ18testFunzioniSetVecvENKUlRKiE13_clES0_
FN:2484,2484,_ZZ18testFunzioniSetVecvENKUlRKiE14_clES0_
FN:2537,2849,_Z20testCasiLimiteSetVecv
FN:257,257,_ZZ21testCostruttoriVectorvENKUlRKiE1_clES0_
FN:266,266,_ZZ21testCostruttoriVectorvENKUlRKNSt7__cxx1112basic_stringIcSt11char_traitsIcESaIcEEEE1_clES6_
FN:2700,2700,_ZZ20testCasiLimiteSetVecvENKUlRKiE_clES0_
FN:2715,2715,_ZZ20testCasiLimiteSetVecvENKUlRKiE0_clES0_
FN:2728,2728,_ZZ20testCasiLimiteSetVecvENKUlRKiE1_clES0_
FN:2741,2741,_ZZ20testCasiLimiteSetVecvENKUlRKiE2_clES0_
FN:275,275,_ZZ21testCostruttoriVectorvENKUlRKdE1_clES0_
FN:2754,2754,_ZZ20testCasiLimiteSetVecvENKUlRKiE3_clES0_
FN:2767,2767,_ZZ20testCasiLimiteSetVecvENKUlRKiE4_clES0_
FN:2784,2784,_ZZ20testCasiLimiteSetVecvENKUlRKiE5_clES0_
FN:2793,2793,_ZZ20testCasiLimiteSetVecvENKUlRKiE6_clES0_
FN:2802,2802,_ZZ20testCasiLimiteSetVecvENKUlRKiE7_clES0_
FN:2811,2811,_ZZ20testCasiLimiteSetVecvENKUlRKiE8_clES0_
FN:2820,2820,_ZZ20testCasiLimiteSetVecvENKUlRKiE9_clES0_
FN:2827,2827,_ZZ20testCasiLimiteSetVecvENKUlRKiE10_clES0_
FN:283,410,_Z18testFunzioniVectorv
FN:2836,2836,_ZZ20testCasiLimiteSetVecvENKUlRKiE11_clES0_
FN:2843,2843,_ZZ20testCasiLimiteSetVecvENKUlRKiE12_clES0_
FN:2851,3100,_Z22testCostruttoriHeapVecIZ6mytestvEUlvE_Z6mytestvEUlvE0_Z6mytestvEUlvE1_EbT_T0_T1_
FN:2937,2937,_ZZ22testCostruttoriHeapVecIZ6mytestvEUlvE_Z6mytestvEUlvE0_Z6mytestvEUlvE1_EbT_T0_T1_ENKUlRKiE_clES7_
FN:2940,2940,_ZZ22testCostruttoriHeapVecIZ6mytestvEUlvE_Z6mytestvEUlvE0_Z6mytestvEUlvE1_EbT_T0_T1_ENKUlRKiE0_clES7_
FN:2953,2953,_ZZ22testCostruttoriHeapVecIZ6mytestvEUlvE_Z6mytestvEUlvE0_Z6mytestvEUlvE1_EbT_T0_T1_ENKUlRKNSt7__cxx1112basic_stringIcSt11char_traitsIcESaIcEEEE_clESD_
FN:2956,2956,_ZZ22testCostruttoriHeapVecIZ6mytestvEUlvE_Z6mytestvEUlvE0_Z6mytestvEUlvE1_EbT_T0_T1_ENKUlRKNSt7__cxx1112basic_stringIcSt11char_traitsIcESaIcEEEE0_clESD_
FN:2969,2969,_ZZ22testCostruttoriHeapVecIZ6mytestvEUlvE_Z6mytestvEUlvE0_Z6mytestvEUlvE1_EbT_T0_T1_ENKUlRKdE_clES7_
FN:2972,2972,_ZZ22testCostruttoriHeapVecIZ6mytestvEUlvE_Z6mytestvEUlvE0_Z6mytestvEUlvE1_EbT_T0_T1_ENKUlRKdE0_clES7_
FN:3028,3028,_ZZ22testCostruttoriHeapVecIZ6mytestvEUlvE_Z6mytestvEUlvE0_Z6mytestvEUlvE1_EbT_T0_T1_ENKUlRKiE1_clES7_
FN:3031,3031,_ZZ22testCostruttoriHeapVecIZ6mytestvEUlvE_Z6mytestvEUlvE0_Z6mytestvEUlvE1_EbT_T0_T1_ENKUlRKiE2_clES7_
FN:3044,3044,_ZZ22testCostruttoriHeapVecIZ6mytestvEUlvE_Z6mytestvEUlvE0_Z6mytestvEUlvE1_EbT_T0_T1_ENKUlRKNSt7__cxx1112basic_stringIcSt11char_traitsIcESaIcEEEE1_clESD_
FN:3047,3047,_ZZ22testCostruttoriHeapVecIZ6mytestvEUlvE_Z6mytestvEUlvE0_Z6mytestvEUlvE1_EbT_T0_T1_ENKUlRKNSt7__cxx1112basic_stringIcSt11char_traitsIcESaIcEEEE2_clESD_
FN:3060,3060,_ZZ22testCostruttoriHeapVecIZ6mytestvEUlvE_Z6mytestvEUlvE0_Z6mytestvEUlvE1_EbT_T0_T1_ENKUlRKdE1_clES7_
FN:3063,3063,_ZZ22testCostruttoriHeapVecIZ6mytestvEUlvE_Z6mytestvEUlvE0_Z6mytestvEUlvE1_EbT_T0_T1_ENKUlRKdE2_clES7_
FN:3074,3074,_ZZ22testCostruttoriHeapVecIZ6mytestvEUlvE_Z6mytestvEUlvE0_Z6mytestvEUlvE1_EbT_T0_T1_ENKUlRKiE3_clES7_
FN:3084,3084,_ZZ22testCostruttoriHeapVecIZ6mytestvEUlvE_Z6mytestvEUlvE0_Z6mytestvEUlvE1_EbT_T0_T1_ENKUlRKNSt7__cxx1112basic_stringIcSt11char_traitsIcESaIcEEEE3_clESD_
FN:3094,3094,_ZZ22testCostruttoriHeapVecIZ6mytestvEUlvE_Z6mytestvEUlvE0_Z6mytestvEUlvE1_EbT_T0_T1_ENKUlRKdE3_clES7_
FN:3102,3243,_Z19testFunzioniHeapVecv
FN:3127,3127,_ZZ19testFunzioniHeapVecvENKUlRKiE_clES0_
FN:3130,3130,_ZZ19testFunzioniHeapVecvENKUlRKiE0_clES0_
FN:3142,3142,_ZZ19testFunzioniHeapVecvENKUlRKiE1_clES0_
FN:3149,3149,_ZZ19testFunzioniHeapVecvENKUlRKiE2_clES0_
FN:3173,3173,_ZZ19testFunzioniHeapVecvENKUlRKiE3_clES0_
FN:3237,3237,_ZZ19testFunzioniHeapVecvENKUlRKiE4_clES0_
FN:3245,3292,_Z21testCasiLimiteHeapVecv
FN:3294,3543,_Z21testCostruttoriPQHeapIZ6mytestvEUlvE_Z6mytestvEUlvE0_Z6mytestvEUlvE1_EbT_T0_T1_
FN:3380,3380,_ZZ21testCostruttoriPQHeapIZ6mytestvEUlvE_Z6mytestvEUlvE0_Z6mytestvEUlvE1_EbT_T0_T1_ENKUlRKiE_clES7_
FN:3383,3383,_ZZ21testCostruttoriPQHeapIZ6mytestvEUlvE_Z6mytestvEUlvE0_Z6mytestvEUlvE1_EbT_T0_T1_ENKUlRKiE0_clES7_
FN:3396,3396,_ZZ21testCostruttoriPQHeapIZ6mytestvEUlvE_Z6mytestvEUlvE0_Z6mytestvEUlvE1_EbT_T0_T1_ENKUlRKNSt7__cxx1112basic_stringIcSt11char_traitsIcESaIcEEEE_clESD_
FN:3399,3399,_ZZ21testCostruttoriPQHeapIZ6mytestvEUlvE_Z6mytestvEUlvE0_Z6mytestvEUlvE1_EbT_T0_T1_ENKUlRKNSt7__cxx1112basic_stringIcSt11char_traitsIcESaIcEEEE0_clESD_
FN:3412,3412,_ZZ21testCostruttoriPQHeapIZ6mytestvEUlvE_Z6mytestvEUlvE0_Z6mytestvEUlvE1_EbT_T0_T1_ENKUlRKdE_clES7_
FN:3415,3415,_ZZ21testCostruttoriPQHeapIZ6mytestvEUlvE_Z6mytestvEUlvE0_Z6mytestvEUlvE1_EbT_T0_T1_ENKUlRKdE0_clES7_
FN:347,347,_ZZ18testFunzioniVectorvENKUlRKiE_clES0_
FN:3471,3471,_ZZ21testCostruttoriPQHeapIZ6mytestvEUlvE_Z6mytestvEUlvE0_Z6mytestvEUlvE1_EbT_T0_T1_ENKUlRKiE1_clES7_
FN:3474,3474,_ZZ21testCostruttoriPQHeapIZ6mytestvEUlvE_Z6mytestvEUlvE0_Z6mytestvEUlvE1_EbT_T0_T1_ENKUlRKiE2_clES7_
FN:3487,3487,_ZZ21testCostruttoriPQHeapIZ6mytestvEUlvE_Z6mytestvEUlvE0_Z6mytestvEUlvE1_EbT_T0_T1_ENKUlRKNSt7__cxx1112basic_stringIcSt11char_traitsIcESaIcEEEE1_clESD_
FN:3490,3490,_ZZ21testCostruttoriPQHeapIZ6mytestvEUlvE_Z6mytestvEUlvE0_Z6mytestvEUlvE1_EbT_T0_T1_ENKUlRKNSt7__cxx1112basic_stringIcSt11char_traitsIcESaIcEEEE2_clESD_
FN:3503,3503,_ZZ21testCostruttoriPQHeapIZ6mytestvEUlvE_Z6mytestvEUlvE0_Z6mytestvEUlvE1_EbT_T0_T1_ENKUlRKdE1_clES7_
FN:3506,3506,_ZZ21testCostruttoriPQHeapIZ6mytestvEUlvE_Z6mytestvEUlvE0_Z6mytestvEUlvE1_EbT_T0_T1_ENKUlRKdE2_clES7_
FN:3517,3517,_ZZ21testCostruttoriPQHeapIZ6mytestvEUlvE_Z6mytestvEUlvE0_Z6mytestvEUlvE1_EbT_T0_T1_ENKUlRKiE3_clES7_
FN:3527,3527,_ZZ21testCostruttoriPQHeapIZ6mytestvEUlvE_Z6mytestvEUlvE0_Z6mytestvEUlvE1_EbT_T0_T1_ENKUlRKNSt7__cxx1112basic_stringIcSt11char_traitsIcESaIcEEEE3_clESD_
FN:3537,3537,_ZZ21testCostruttoriPQHeapIZ6mytestvEUlvE_Z6mytestvEUlvE0_Z6mytestvEUlvE1_EbT_T0_T1_ENKUlRKdE3_clES7_
FN:354,354,_ZZ18testFunzioniVectorvENKUlRKiE0_clES0_
FN:3545,3739,_Z18testFunzioniPQHeapv
FN:3570,3570,_ZZ18testFunzioniPQHeapvENKUlRKiE_clES0_
FN:3573,3573,_ZZ18testFunzioniPQHeapvENKUlRKiE0_clES0_
FN:3585,3585,_ZZ18testFunzioniPQHeapvENKUlRKiE1_clES0_
FN:3592,3592,_ZZ18testFunzioniPQHeapvENKUlRKiE2_clES0_
FN:3616,3616,_ZZ18testFunzioniPQHeapvENKUlRKiE3_clES0_
FN:3741,3812,_Z20testCasiLimitePQHeapv
FN:376,376,_ZZ18testFunzioniVectorvENKUlRKiE1_clES0_
FN:3801,3801,_ZZ20testCasiLimitePQHeapvENKUlRKiE_clES0_
FN:3805,3805,_ZZ20testCasiLimitePQHeapvENKUlRKiE0_clES0_
FN:3814,3872,_Z6mytestv
FN:395,395,_ZZ18testFunzioniVectorvENKUlRKiE2_clES0_
FN:412,554,_Z27testUlterioriFunzioniVectorIZ6mytestvEUlvE_EbT_
FN:429,429,_ZZ27testUlterioriFunzioniVectorIZ6mytestvEUlvE_EbT_ENKUlRKiE_clES3_
FN:432,432,_ZZ27testUlterioriFunzioniVectorIZ6mytestvEUlvE_EbT_ENKUlRKiE0_clES3_
FN:438,438,_ZZ27testUlterioriFunzioniVectorIZ6mytestvEUlvE_EbT_ENKUlRKiE1_clES3_
FN:449,449,_ZZ27testUlterioriFunzioniVectorIZ6mytestvEUlvE_EbT_ENKUlRKiE2_clES3_
FN:453,453,_ZZ27testUlterioriFunzioniVectorIZ6mytestvEUlvE_EbT_ENKUlRKiE3_clES3_
FN:460,460,_ZZ27testUlterioriFunzioniVectorIZ6mytestvEUlvE_EbT_ENKUlRKiE4_clES3_
FN:471,471,_ZZ27testUlterioriFunzioniVectorIZ6mytestvEUlvE_EbT_ENKUlRKiE5_clES3_
FN:475,475,_ZZ27testUlterioriFunzioniVectorIZ6mytestvEUlvE_EbT_ENKUlRKiE6_clES3_
FN:496,496,_ZZ27testUlterioriFunzioniVectorIZ6mytestvEUlvE_EbT_ENKUlRKiE7_clES3_
FN:508,508,_ZZ27testUlterioriFunzioniVectorIZ6mytestvEUlvE_EbT_ENKUlRKiE8_clES3_
FN:556,597,_Z20testCasiLimiteVectorv
FN:599,838,_Z19testCostruttoriListv
FN:676,676,_ZZ19testCostruttoriListvENKUlRKiE_clES0_
FN:686,686,_ZZ19testCostruttoriListvENKUlRKNSt7__cxx1112basic_stringIcSt11char_traitsIcESaIcEEEE_clES6_
FN:701,701,_ZZ19testCostruttoriListvENKUlRKdE_clES0_
FN:739,739,_ZZ19testCostruttoriListvENKUlRKiE0_clES0_
FN:748,748,_ZZ19testCostruttoriListvENKUlRKNSt7__cxx1112basic_stringIcSt11char_traitsIcESaIcEEEE0_clES6_
FN:763,763,_ZZ19testCostruttoriListvENKUlRKdE0_clES0_
FN:814,814,_ZZ19testCostruttoriListvENKUlRKiE1_clES0_
FN:823,823,_ZZ19testCostruttoriListvENKUlRKNSt7__cxx1112basic_stringIcSt11char_traitsIcESaIcEEEE1_clES6_
FN:832,832,_ZZ19testCostruttoriListvENKUlRKdE1_clES0_
FN:840,1084,_Z16testFunzioniListv
FN:872,872,_ZZ16testFunzioniListvENKUlRKiE_clES0_
FN:888,888,_ZZ16testFunzioniListvENKUlRKiE0_clES0_
FN:892,892,_ZZ16testFunzioniListvENKUlRKiE1_clES0_
FN:907,907,_ZZ16testFunzioniListvENKUlRKiE2_clES0_
FN:934,934,_ZZ16testFunzioniListvENKUlRKiE3_clES0_
FN:960,960,_ZZ16testFunzioniListvENKUlRKiE4_clES0_
FN:966,966,_ZZ16testFunzioniListvENKUlRKiE5_clES0_
FN:972,972,_ZZ16testFunzioniListvENKUlRKiE6_clES0_
FN:983,983,_ZZ16testFunzioniListvENKUlRKiE7_clES0_
FN:998,998,_ZZ16testFunzioniListvENKUlRKiE8_clES0_
FNDA:5,_ZZ16testFunzioniListvENKUlRKiE9_clES0_
FNDA:5,_ZZ16testFunzioniListvENKUlRKiE10_clES0_
FNDA:5,_ZZ16testFunzioniListvENKUlRKiE11_clES0_
FNDA:1,_Z18testCasiLimiteListv
FNDA:1,_Z21testCostruttoriSetLstIZ6mytestvEUlvE_Z6mytestvEUlvE0_Z6mytestvEUlvE1_EbT_T0_T1_
FNDA:5,_ZZ21testCostruttoriSetLstIZ6mytestvEUlvE_Z6mytestvEUlvE0_Z6mytestvEUlvE1_EbT_T0_T1_ENKUlRKiE_clES7_
FNDA:5,_ZZ21testCostruttoriSetLstIZ6mytestvEUlvE_Z6mytestvEUlvE0_Z6mytestvEUlvE1_EbT_T0_T1_ENKUlRKiE0_clES7_
FNDA:5,_ZZ21testCostruttoriSetLstIZ6mytestvEUlvE_Z6mytestvEUlvE0_Z6mytestvEUlvE1_EbT_T0_T1_ENKUlRKNSt7__cxx1112basic_stringIcSt11char_traitsIcESaIcEEEE_clESD_
FNDA:5,_ZZ21testCostruttoriSetLstIZ6mytestvEUlvE_Z6mytestvEUlvE0_Z6mytestvEUlvE1_EbT_T0_T1_ENKUlRKNSt7__cxx1112basic_stringIcSt11char_traitsIcESaIcEEEE0_clESD_
FNDA:5,_ZZ21testCostruttoriSetLstIZ6mytestvEUlvE_Z6mytestvEUlvE0_Z6mytestvEUlvE1_EbT_T0_T1_ENKUlRKdE_clES7_
FNDA:5,_ZZ21testCostruttoriSetLstIZ6mytestvEUlvE_Z6mytestvEUlvE0_Z6mytestvEUlvE1_EbT_T0_T1_ENKUlRKdE0_clES7_
FNDA:5,_ZZ21testCostruttoriVectorvENKUlRKiE_clES0_
FNDA:5,_ZZ21testCostruttoriSetLstIZ6mytestvEUlvE_Z6mytestvEUlvE0_Z6mytestvEUlvE1_EbT_T0_T1_ENKUlRKiE1_clES7_
FNDA:5,_ZZ21testCostruttoriSetLstIZ6mytestvEUlvE_Z6mytestvEUlvE0_Z6mytestvEUlvE1_EbT_T0_T1_ENKUlRKiE2_clES7_
FNDA:5,_ZZ21testCostruttoriSetLstIZ6mytestvEUlvE_Z6mytestvEUlvE0_Z6mytestvEUlvE1_EbT_T0_T1_ENKUlRKNSt7__cxx1112basic_stringIcSt11char_traitsIcESaIcEEEE1_clESD_
FNDA:5,_ZZ21testCostruttoriSetLstIZ6mytestvEUlvE_Z6mytestvEUlvE0_Z6mytestvEUlvE1_EbT_T0_T1_ENKUlRKNSt7__cxx1112basic_stringIcSt11char_traitsIcESaIcEEEE2_clESD_
FNDA:5,_ZZ21testCostruttoriSetLstIZ6mytestvEUlvE_Z6mytestvEUlvE0_Z6mytestvEUlvE1_EbT_T0_T1_ENKUlRKdE1_clES7_
FNDA:5,_ZZ21testCostruttoriSetLstIZ6mytestvEUlvE_Z6mytestvEUlvE0_Z6mytestvEUlvE1_EbT_T0_T1_ENKUlRKdE2_clES7_
FNDA:5,_ZZ21testCostruttoriSetLstIZ6mytestvEUlvE_Z6mytestvEUlvE0_Z6mytestvEUlvE1_EbT_T0_T1_ENKUlRKiE3_clES7_
FNDA:5,_ZZ21testCostruttoriSetLstIZ6mytestvEUlvE_Z6mytestvEUlvE0_Z6mytestvEUlvE1_EbT_T0_T1_ENKUlRKNSt7__cxx1112basic_stringIcSt11char_traitsIcESaIcEEEE3_clESD_
FNDA:5,_ZZ21testCostruttoriVectorvENKUlRKNSt7__cxx1112basic_stringIcSt11char_traitsIcESaIcEEEE_clES6_
FNDA:5,_ZZ21testCostruttoriSetLstIZ6mytestvEUlvE_Z6mytestvEUlvE0_Z6mytestvEUlvE1_EbT_T0_T1_ENKUlRKdE3_clES7_
FNDA:1,_Z18testFunzioniSetLstv
FNDA:4,_ZZ18testFunzioniSetLstvENKUlRKiE_clES0_
FNDA:4,_ZZ18testFunzioniSetLstvENKUlRKiE0_clES0_
FNDA:4,_ZZ18testFunzioniSetLstvENKUlRKiE1_clES0_
FNDA:4,_ZZ18testFunzioniSetLstvENKUlRKiE2_clES0_
FNDA:10,_Z20generaStringaCasualeIZ6mytestvEUlvE0_ENSt7__cxx1112basic_stringIcSt11char_traitsIcESaIcEEET_
FNDA:12,_Z20generaStringaCasualeIZ6mytestvEUlvE_ENSt7__cxx1112basic_stringIcSt11char_traitsIcESaIcEEET_
FNDA:5,_ZZ18testFunzioniSetLstvENKUlRKiE3_clES0_
FNDA:4,_ZZ18testFunzioniSetLstvENKUlRKiE4_clES0_
FNDA:5,_ZZ18testFunzioniSetLstvENKUlRKiE5_clES0_
FNDA:5,_ZZ18testFunzioniSetLstvENKUlRKiE6_clES0_
FNDA:5,_ZZ21testCostruttoriVectorvENKUlRKdE_clES0_
FNDA:5,_ZZ18testFunzioniSetLstvENKUlRKiE7_clES0_
FNDA:4,_ZZ18testFunzioniSetLstvENKUlRKiE8_clES0_
FNDA:4,_ZZ18testFunzioniSetLstvENKUlRKiE9_clES0_
FNDA:3,_ZZ18testFunzioniSetLstvENKUlRKiE10_clES0_
FNDA:3,_ZZ18testFunzioniSetLstvENKUlRKiE11_clES0_
FNDA:3,_ZZ18testFunzioniSetLstvENKUlRKiE12_clES0_
FNDA:3,_ZZ18testFunzioniSetLstvENKUlRKiE13_clES0_
FNDA:3,_ZZ18testFunzioniSetLstvENKUlRKiE14_clES0_
FNDA:2,_ZZ18testFunzioniSetLstvENKUlRKiE15_clES0_
FNDA:2,_ZZ18testFunzioniSetLstvENKUlRKiE16_clES0_
FNDA:2,_ZZ18testFunzioniSetLstvENKUlRKiE17_clES0_
FNDA:2,_ZZ18testFunzioniSetLstvENKUlRKiE18_clES0_
FNDA:6,_ZZ18testFunzioniSetLstvENKUlRKiE19_clES0_
FNDA:6,_ZZ18testFunzioniSetLstvENKUlRKiE20_clES0_
FNDA:1,_Z20testCasiLimiteSetLstv
FNDA:5,_ZZ20testCasiLimiteSetLstvENKUlRKiE_clES0_
FNDA:5,_ZZ20testCasiLimiteSetLstvENKUlRKiE0_clES0_
FNDA:5,_ZZ20testCasiLimiteSetLstvENKUlRKiE1_clES0_
FNDA:5,_ZZ20testCasiLimiteSetLstvENKUlRKiE2_clES0_
FNDA:4,_ZZ20testCasiLimiteSetLstvENKUlRKiE3_clES0_
FNDA:5,_ZZ21testCostruttoriVectorvENKUlRKiE0_clES0_
FNDA:5,_ZZ20testCasiLimiteSetLstvENKUlRKiE4_clES0_
FNDA:5,_ZZ20testCasiLimiteSetLstvENKUlRKiE5_clES0_
FNDA:5,_ZZ20testCasiLimiteSetLstvENKUlRKiE6_clES0_
FNDA:1,_ZZ20testCasiLimiteSetLstvENKUlRKiE7_clES0_
FNDA:313,_Z15stampaRisultatiRKNSt7__cxx1112basic_stringIcSt11char_traitsIcESaIcEEEb
FNDA:1,_ZZ20testCasiLimiteSetLstvENKUlRKiE8_clES0_
FNDA:1,_Z21testCostruttoriSetVecIZ6mytestvEUlvE_Z6mytestvEUlvE0_Z6mytestvEUlvE1_EbT_T0_T1_
FNDA:5,_ZZ21testCostruttoriVectorvENKUlRKNSt7__cxx1112basic_stringIcSt11char_traitsIcESaIcEEEE0_clES6_
FNDA:5,_ZZ21testCostruttoriSetVecIZ6mytestvEUlvE_Z6mytestvEUlvE0_Z6mytestvEUlvE1_EbT_T0_T1_ENKUlRKiE_clES7_
FNDA:5,_ZZ21testCostruttoriSetVecIZ6mytestvEUlvE_Z6mytestvEUlvE0_Z6mytestvEUlvE1_EbT_T0_T1_ENKUlRKiE0_clES7_
FNDA:5,_ZZ21testCostruttoriSetVecIZ6mytestvEUlvE_Z6mytestvEUlvE0_Z6mytestvEUlvE1_EbT_T0_T1_ENKUlRKNSt7__cxx1112basic_stringIcSt11char_traitsIcESaIcEEEE_clESD_
FNDA:5,_ZZ21testCostruttoriSetVecIZ6mytestvEUlvE_Z6mytestvEUlvE0_Z6mytestvEUlvE1_EbT_T0_T1_ENKUlRKNSt7__cxx1112basic_stringIcSt11char_traitsIcESaIcEEEE0_clESD_
FNDA:5,_ZZ21testCostruttoriSetVecIZ6mytestvEUlvE_Z6mytestvEUlvE0_Z6mytestvEUlvE1_EbT_T0_T1_ENKUlRKdE_clES7_
FNDA:5,_ZZ21testCostruttoriSetVecIZ6mytestvEUlvE_Z6mytestvEUlvE0_Z6mytestvEUlvE1_EbT_T0_T1_ENKUlRKdE0_clES7_
FNDA:5,_ZZ21testCostruttoriVectorvENKUlRKdE0_clES0_
FNDA:5,_ZZ21testCostruttoriSetVecIZ6mytestvEUlvE_Z6mytestvEUlvE0_Z6mytestvEUlvE1_EbT_T0_T1_ENKUlRKiE1_clES7_
FNDA:5,_ZZ21testCostruttoriSetVecIZ6mytestvEUlvE_Z6mytestvEUlvE0_Z6mytestvEUlvE1_EbT_T0_T1_ENKUlRKiE2_clES7_
FNDA:5,_ZZ21testCostruttoriSetVecIZ6mytestvEUlvE_Z6mytestvEUlvE0_Z6mytestvEUlvE1_EbT_T0_T1_ENKUlRKNSt7__cxx1112basic_stringIcSt11char_traitsIcESaIcEEEE1_clESD_
FNDA:5,_ZZ21testCostruttoriSetVecIZ6mytestvEUlvE_Z6mytestvEUlvE0_Z6mytestvEUlvE1_EbT_T0_T1_ENKUlRKNSt7__cxx1112basic_stringIcSt11char_traitsIcESaIcEEEE2_clESD_
FNDA:5,_ZZ21testCostruttoriSetVecIZ6mytestvEUlvE_Z6mytestvEUlvE0_Z6mytestvEUlvE1_EbT_T0_T1_ENKUlRKdE1_clES7_
FNDA:5,_ZZ21testCostruttoriSetVecIZ6mytestvEUlvE_Z6mytestvEUlvE0_Z6mytestvEUlvE1_EbT_T0_T1_ENKUlRKdE2_clES7_
FNDA:5,_ZZ21testCostruttoriSetVecIZ6mytestvEUlvE_Z6mytestvEUlvE0_Z6mytestvEUlvE1_EbT_T0_T1_ENKUlRKiE3_clES7_
FNDA:5,_ZZ21testCostruttoriSetVecIZ6mytestvEUlvE_Z6mytestvEUlvE0_Z6mytestvEUlvE1_EbT_T0_T1_ENKUlRKNSt7__cxx1112basic_stringIcSt11char_traitsIcESaIcEEEE3_clESD_
FNDA:5,_ZZ21testCostruttoriSetVecIZ6mytestvEUlvE_Z6mytestvEUlvE0_Z6mytestvEUlvE1_EbT_T0_T1_ENKUlRKdE3_clES7_
FNDA:1,_Z18testFunzioniSetVecv
FNDA:4,_ZZ18testFunzioniSetVecvENKUlRKiE_clES0_
FNDA:4,_ZZ18testFunzioniSetVecvENKUlRKiE0_clES0_
FNDA:4,_ZZ18testFunzioniSetVecvENKUlRKiE1_clES0_
FNDA:4,_ZZ18testFunzioniSetVecvENKUlRKiE2_clES0_
FNDA:6,_ZZ18testFunzioniSetVecvENKUlRKiE3_clES0_
FNDA:5,_ZZ18testFunzioniSetVecvENKUlRKiE4_clES0_
FNDA:1,_Z21testCostruttoriVectorv
FNDA:5,_ZZ18testFunzioniSetVecvENKUlRKiE5_clES0_
FNDA:5,_ZZ18testFunzioniSetVecvENKUlRKiE6_clES0_
FNDA:5,_ZZ18testFunzioniSetVecvENKUlRKiE7_clES0_
FNDA:5,_ZZ18testFunzioniSetVecvENKUlRKiE8_clES0_
FNDA:4,_ZZ18testFunzioniSetVecvENKUlRKiE9_clES0_
FNDA:4,_ZZ18testFunzioniSetVecvENKUlRKiE10_clES0_
FNDA:4,_ZZ18testFunzioniSetVecvENKUlRKiE11_clES0_
FNDA:4,_ZZ18testFunzioniSetVecvENKUlRKiE12_clES0_
FNDA:4,_ZZ18testFunzioniSetVecvENKUlRKiE13_clES0_
FNDA:4,_ZZ18testFunzioniSetVecvENKUlRKiE14_clES0_
FNDA:1,_Z20testCasiLimiteSetVecv
FNDA:5,_ZZ21testCostruttoriVectorvENKUlRKiE1_clES0_
FNDA:5,_ZZ21testCostruttoriVectorvENKUlRKNSt7__cxx1112basic_stringIcSt11char_traitsIcESaIcEEEE1_clES6_
FNDA:5,_ZZ20testCasiLimiteSetVecvENKUlRKiE_clES0_
FNDA:5,_ZZ20testCasiLimiteSetVecvENKUlRKiE0_clES0_
FNDA:5,_ZZ20testCasiLimiteSetVecvENKUlRKiE1_clES0_
FNDA:5,_ZZ20testCasiLimiteSetVecvENKUlRKiE2_clES0_
FNDA:5,_ZZ21testCostruttoriVectorvENKUlRKdE1_clES0_
FNDA:5,_ZZ20testCasiLimiteSetVecvENKUlRKiE3_clES0_
FNDA:5,_ZZ20testCasiLimiteSetVecvENKUlRKiE4_clES0_
FNDA:4,_ZZ20testCasiLimiteSetVecvENKUlRKiE5_clES0_
FNDA:3,_ZZ20testCasiLimiteSetVecvENKUlRKiE6_clES0_
FNDA:2,_ZZ20testCasiLimiteSetVecvENKUlRKiE7_clES0_
FNDA:1,_ZZ20testCasiLimiteSetVecvENKUlRKiE8_clES0_
FNDA:0,_ZZ20testCasiLimiteSetVecvENKUlRKiE9_clES0_
FNDA:0,_ZZ20testCasiLimiteSetVecvENKUlRKiE10_clES0_
FNDA:1,_Z18testFunzioniVectorv
FNDA:0,_ZZ20testCasiLimiteSetVecvENKUlRKiE11_clES0_
FNDA:0,_ZZ20testCasiLimiteSetVecvENKUlRKiE12_clES0_
FNDA:1,_Z22testCostruttoriHeapVecIZ6mytestvEUlvE_Z6mytestvEUlvE0_Z6mytestvEUlvE1_EbT_T0_T1_
FNDA:5,_ZZ22testCostruttoriHeapVecIZ6mytestvEUlvE_Z6mytestvEUlvE0_Z6mytestvEUlvE1_EbT_T0_T1_ENKUlRKiE_clES7_
FNDA:5,_ZZ22testCostruttoriHeapVecIZ6mytestvEUlvE_Z6mytestvEUlvE0_Z6mytestvEUlvE1_EbT_T0_T1_ENKUlRKiE0_clES7_
FNDA:5,_ZZ22testCostruttoriHeapVecIZ6mytestvEUlvE_Z6mytestvEUlvE0_Z6mytestvEUlvE1_EbT_T0_T1_ENKUlRKNSt7__cxx1112basic_stringIcSt11char_traitsIcESaIcEEEE_clESD_
FNDA:5,_ZZ22testCostruttoriHeapVecIZ6mytestvEUlvE_Z6mytestvEUlvE0_Z6mytestvEUlvE1_EbT_T0_T1_ENKUlRKNSt7__cxx1112basic_stringIcSt11char_traitsIcESaIcEEEE0_clESD_
FNDA:5,_ZZ22testCostruttoriHeapVecIZ6mytestvEUlvE_Z6mytestvEUlvE0_Z6mytestvEUlvE1_EbT_T0_T1_ENKUlRKdE_clES7_
FNDA:5,_ZZ22testCostruttoriHeapVecIZ6mytestvEUlvE_Z6mytestvEUlvE0_Z6mytestvEUlvE1_EbT_T0_T1_ENKUlRKdE0_clES7_
FNDA:5,_ZZ22testCostruttoriHeapVecIZ6mytestvEUlvE_Z6mytestvEUlvE0_Z6mytestvEUlvE1_EbT_T0_T1_ENKUlRKiE1_clES7_
FNDA:5,_ZZ22testCostruttoriHeapVecIZ6mytestvEUlvE_Z6mytestvEUlvE0_Z6mytestvEUlvE1_EbT_T0_T1_ENKUlRKiE2_clES7_
FNDA:5,_ZZ22testCostruttoriHeapVecIZ6mytestvEUlvE_Z6mytestvEUlvE0_Z6mytestvEUlvE1_EbT_T0_T1_ENKUlRKNSt7__cxx1112basic_stringIcSt11char_traitsIcESaIcEEEE1_clESD_
FNDA:5,_ZZ22testCostruttoriHeapVecIZ6mytestvEUlvE_Z6mytestvEUlvE0_Z6mytestvEUlvE1_EbT_T0_T1_ENKUlRKNSt7__cxx1112basic_stringIcSt11char_traitsIcESaIcEEEE2_clESD_
FNDA:5,_ZZ22testCostruttoriHeapVecIZ6mytestvEUlvE_Z6mytestvEUlvE0_Z6mytestvEUlvE1_EbT_T0_T1_ENKUlRKdE1_clES7_
FNDA:5,_ZZ22testCostruttoriHeapVecIZ6mytestvEUlvE_Z6mytestvEUlvE0_Z6mytestvEUlvE1_EbT_T0_T1_ENKUlRKdE2_clES7_
FNDA:5,_ZZ22testCostruttoriHeapVecIZ6mytestvEUlvE_Z6mytestvEUlvE0_Z6mytestvEUlvE1_EbT_T0_T1_ENKUlRKiE3_clES7_
FNDA:5,_ZZ22testCostruttoriHeapVecIZ6mytestvEUlvE_Z6mytestvEUlvE0_Z6mytestvEUlvE1_EbT_T0_T1_ENKUlRKNSt7__cxx1112basic_stringIcSt11char_traitsIcESaIcEEEE3_clESD_
FNDA:5,_ZZ22testCostruttoriHeapVecIZ6mytestvEUlvE_Z6mytestvEUlvE0_Z6mytestvEUlvE1_EbT_T0_T1_ENKUlRKdE3_clES7_
FNDA:1,_Z19testFunzioniHeapVecv
FNDA:7,_ZZ19testFunzioniHeapVecvENKUlRKiE_clES0_
FNDA:7,_ZZ19testFunzioniHeapVecvENKUlRKiE0_clES0_
FNDA:7,_ZZ19testFunzioniHeapVecvENKUlRKiE1_clES0_
FNDA:7,_ZZ19testFunzioniHeapVecvENKUlRKiE2_clES0_
FNDA:7,_ZZ19testFunzioniHeapVecvENKUlRKiE3_clES0_
FNDA:5,_ZZ19testFunzioniHeapVecvENKUlRKiE4_clES0_
FNDA:1,_Z21testCasiLimiteHeapVecv
FNDA:1,_Z21testCostruttoriPQHeapIZ6mytestvEUlvE_Z6mytestvEUlvE0_Z6mytestvEUlvE1_EbT_T0_T1_
FNDA:5,_ZZ21testCostruttoriPQHeapIZ6mytestvEUlvE_Z6mytestvEUlvE0_Z6mytestvEUlvE1_EbT_T0_T1_ENKUlRKiE_clES7_
FNDA:5,_ZZ21testCostruttoriPQHeapIZ6mytestvEUlvE_Z6mytestvEUlvE0_Z6mytestvEUlvE1_EbT_T0_T1_ENKUlRKiE0_clES7_
FNDA:5,_ZZ21testCostruttoriPQHeapIZ6mytestvEUlvE_Z6mytestvEUlvE0_Z6mytestvEUlvE1_EbT_T0_T1_ENKUlRKNSt7__cxx1112basic_stringIcSt11char_traitsIcESaIcEEEE_clESD_
FNDA:5,_ZZ21testCostruttoriPQHeapIZ6mytestvEUlvE_Z6mytestvEUlvE0_Z6mytestvEUlvE1_EbT_T0_T1_ENKUlRKNSt7__cxx1112basic_stringIcSt11char_traitsIcESaIcEEEE0_clESD_
FNDA:5,_ZZ21testCostruttoriPQHeapIZ6mytestvEUlvE_Z6mytestvEUlvE0_Z6mytestvEUlvE1_EbT_T0_T1_ENKUlRKdE_clES7_
FNDA:5,_ZZ21testCostruttoriPQHeapIZ6mytestvEUlvE_Z6mytestvEUlvE0_Z6mytestvEUlvE1_EbT_T0_T1_ENKUlRKdE0_clES7_
FNDA:5,_ZZ18testFunzioniVectorvENKUlRKiE_clES0_
FNDA:5,_ZZ21testCostruttoriPQHeapIZ6mytestvEUlvE_Z6mytestvEUlvE0_Z6mytestvEUlvE1_EbT_T0_T1_ENKUlRKiE1_clES7_
FNDA:5,_ZZ21testCostruttoriPQHeapIZ6mytestvEUlvE_Z6mytestvEUlvE0_Z6mytestvEUlvE1_EbT_T0_T1_ENKUlRKiE2_clES7_
FNDA:5,_ZZ21testCostruttoriPQHeapIZ6mytestvEUlvE_Z6mytestvEUlvE0_Z6mytestvEUlvE1_EbT_T0_T1_ENKUlRKNSt7__cxx1112basic_stringIcSt11char_traitsIcESaIcEEEE1_clESD_
FNDA:5,_ZZ21testCostruttoriPQHeapIZ6mytestvEUlvE_Z6mytestvEUlvE0_Z6mytestvEUlvE1_EbT_T0_T1_ENKUlRKNSt7__cxx1112basic_stringIcSt11char_traitsIcESaIcEEEE2_clESD_
FNDA:5,_ZZ21testCostruttoriPQHeapIZ6mytestvEUlvE_Z6mytestvEUlvE0_Z6mytestvEUlvE1_EbT_T0_T1_ENKUlRKdE1_clES7_
FNDA:5,_ZZ21testCostruttoriPQHeapIZ6mytestvEUlvE_Z6mytestvEUlvE0_Z6mytestvEUlvE1_EbT_T0_T1_ENKUlRKdE2_clES7_
FNDA:5,_ZZ21testCostruttoriPQHeapIZ6mytestvEUlvE_Z6mytestvEUlvE0_Z6mytestvEUlvE1_EbT_T0_T1_ENKUlRKiE3_clES7_
FNDA:5,_ZZ21testCostruttoriPQHeapIZ6mytestvEUlvE_Z6mytestvEUlvE0_Z6mytestvEUlvE1_EbT_T0_T1_ENKUlRKNSt7__cxx1112basic_stringIcSt11char_traitsIcESaIcEEEE3_clESD_
FNDA:5,_ZZ21testCostruttoriPQHeapIZ6mytestvEUlvE_Z6mytestvEUlvE0_Z6mytestvEUlvE1_EbT_T0_T1_ENKUlRKdE3_clES7_
FNDA:5,_ZZ18testFunzioniVectorvENKUlRKiE0_clES0_
FNDA:1,_Z18testFunzioniPQHeapv
FNDA:7,_ZZ18testFunzioniPQHeapvENKUlRKiE_clES0_
FNDA:7,_ZZ18testFunzioniPQHeapvENKUlRKiE0_clES0_
FNDA:7,_ZZ18testFunzioniPQHeapvENKUlRKiE1_clES0_
FNDA:7,_ZZ18testFunzioniPQHeapvENKUlRKiE2_clES0_
FNDA:7,_ZZ18testFunzioniPQHeapvENKUlRKiE3_clES0_
FNDA:1,_Z20testCasiLimitePQHeapv
FNDA:6,_ZZ18testFunzioniVectorvENKUlRKiE1_clES0_
FNDA:2,_ZZ20testCasiLimitePQHeapvENKUlRKiE_clES0_
FNDA:2,_ZZ20testCasiLimitePQHeapvENKUlRKiE0_clES0_
FNDA:1,_Z6mytestv
FNDA:4,_ZZ18testFunzioniVectorvENKUlRKiE2_clES0_
FNDA:1,_Z27testUlterioriFunzioniVectorIZ6mytestvEUlvE_EbT_
FNDA:5,_ZZ27testUlterioriFunzioniVectorIZ6mytestvEUlvE_EbT_ENKUlRKiE_clES3_
FNDA:5,_ZZ27testUlterioriFunzioniVectorIZ6mytestvEUlvE_EbT_ENKUlRKiE0_clES3_
FNDA:5,_ZZ27testUlterioriFunzioniVectorIZ6mytestvEUlvE_EbT_ENKUlRKiE1_clES3_
FNDA:5,_ZZ27testUlterioriFunzioniVectorIZ6mytestvEUlvE_EbT_ENKUlRKiE2_clES3_
FNDA:5,_ZZ27testUlterioriFunzioniVectorIZ6mytestvEUlvE_EbT_ENKUlRKiE3_clES3_
FNDA:5,_ZZ27testUlterioriFunzioniVectorIZ6mytestvEUlvE_EbT_ENKUlRKiE4_clES3_
FNDA:5,_ZZ27testUlterioriFunzioniVectorIZ6mytestvEUlvE_EbT_ENKUlRKiE5_clES3_
FNDA:5,_ZZ27testUlterioriFunzioniVectorIZ6mytestvEUlvE_EbT_ENKUlRKiE6_clES3_
FNDA:5,_ZZ27testUlterioriFunzioniVectorIZ6mytestvEUlvE_EbT_ENKUlRKiE7_clES3_
FNDA:5,_ZZ27testUlterioriFunzioniVectorIZ6mytestvEUlvE_EbT_ENKUlRKiE8_clES3_
FNDA:1,_Z20testCasiLimiteVectorv
FNDA:1,_Z19testCostruttoriListv
FNDA:5,_ZZ19testCostruttoriListvENKUlRKiE_clES0_
FNDA:5,_ZZ19testCostruttoriListvENKUlRKNSt7__cxx1112basic_stringIcSt11char_traitsIcESaIcEEEE_clES6_
FNDA:5,_ZZ19testCostruttoriListvENKUlRKdE_clES0_
FNDA:5,_ZZ19testCostruttoriListvENKUlRKiE0_clES0_
FNDA:5,_ZZ19testCostruttoriListvENKUlRKNSt7__cxx1112basic_stringIcSt11char_traitsIcESaIcEEEE0_clES6_
FNDA:5,_ZZ19testCostruttoriListvENKUlRKdE0_clES0_
FNDA:5,_ZZ19testCostruttoriListvENKUlRKiE1_clES0_
FNDA:5,_ZZ19testCostruttoriListvENKUlRKNSt7__cxx1112basic_stringIcSt11char_traitsIcESaIcEEEE1_clES6_
FNDA:5,_ZZ19testCostruttoriListvENKUlRKdE1_clES0_
FNDA:1,_Z16testFunzioniListv
FNDA:5,_ZZ16testFunzioniListvENKUlRKiE_clES0_
FNDA:5,_ZZ16testFunzioniListvENKUlRKiE0_clES0_
FNDA:5,_ZZ16testFunzioniListvENKUlRKiE1_clES0_
FNDA:4,_ZZ16testFunzioniListvENKUlRKiE2_clES0_
FNDA:6,_ZZ16testFunzioniListvENKUlRKiE3_clES0_
FNDA:4,_ZZ16testFunzioniListvENKUlRKiE4_clES0_
FNDA:4,_ZZ16testFunzioniListvENKUlRKiE5_clES0_
FNDA:0,_ZZ16testFunzioniListvENKUlRKiE6_clES0_
FNDA:5,_ZZ16testFunzioniListvENKUlRKiE7_clES0_
FNDA:5,_ZZ16testFunzioniListvENKUlRKiE8_clES0_
FNF:203
FNH:198
DA:15,22
DA:16,22
DA:17,44
DA:20,313
DA:21,313
DA:22,313
DA:24,1
DA:31,1
DA:32,1
DA:33,2
DA:38,1
DA:39,1
DA:40,2
DA:45,1
DA:46,1
DA:47,2
DA:54,1
DA:55,1
DA:56,2
DA:61,1
DA:62,1
DA:63,2
DA:68,1
DA:69,1
DA:70,2
DA:77,6
DA:78,5
DA:83,2
DA:88,1
DA:89,1
DA:90,1
DA:91,6
DA:92,5
DA:94,6
DA:96,6
DA:97,5
DA:102,1
DA:103,1
DA:104,2
DA:109,1
DA:110,1
DA:111,2
DA:116,1
DA:117,1
DA:118,2
DA:125,6
DA:126,5
DA:131,2
DA:133,1
DA:134,7
DA:139,1
DA:140,2
DA:142,1
DA:143,7
DA:149,6
DA:150,5
DA:153,5
DA:155,2
DA:157,1
DA:158,7
DA:163,1
DA:164,1
DA:165,2
DA:170,1
DA:171,1
DA:172,2
DA:177,1
DA:178,1
DA:179,2
DA:186,6
DA:187,5
DA:192,2
DA:194,1
DA:195,7
DA:200,1
DA:201,2
DA:203,1
DA:204,7
DA:210,6
DA:211,5
DA:214,5
DA:216,2
DA:218,1
DA:219,7
DA:224,1
DA:225,1
DA:226,1
DA:229,1
DA:230,2
DA:232,1
DA:235,1
DA:236,2
DA:238,1
DA:241,1
DA:242,2
DA:244,1
DA:247,1
DA:248,1
DA:249,1
DA:252,1
DA:253,2
DA:256,1
DA:257,7
DA:261,1
DA:262,2
DA:265,1
DA:266,7
DA:270,1
DA:271,2
DA:274,1
DA:275,7
DA:279,1
DA:280,1
DA:281,1
DA:283,1
DA:293,1
DA:294,6
DA:295,5
DA:299,1
DA:300,6
DA:301,5
DA:305,6
DA:306,5
DA:311,2
DA:313,1
DA:314,6
DA:315,5
DA:322,2
DA:327,1
DA:328,1
DA:329,2
DA:330,1
DA:331,2
DA:332,1
DA:336,1
DA:337,1
DA:338,1
DA:339,2
DA:341,1
DA:345,1
DA:346,1
DA:347,7
DA:350,1
DA:351,2
DA:353,1
DA:354,7
DA:359,1
DA:360,1
DA:361,1
DA:362,1
DA:363,2
DA:367,6
DA:368,5
DA:374,2
DA:375,1
DA:376,8
DA:381,1
DA:382,1
DA:383,1
DA:384,2
DA:387,5
DA:388,4
DA:393,2
DA:395,6
DA:402,1
DA:403,2
DA:408,1
DA:409,1
DA:410,1
DA:412,1
DA:421,1
DA:422,6
DA:423,5
DA:429,7
DA:432,7
DA:435,1
DA:437,2
DA:438,7
DA:441,6
DA:442,5
DA:447,2
DA:449,7
DA:452,1
DA:453,7
DA:458,1
DA:459,2
DA:460,7
DA:463,6
DA:464,5
DA:469,2
DA:470,1
DA:471,7
DA:474,1
DA:475,7
DA:482,1
DA:483,2
DA:484,2
DA:489,1
DA:490,1
DA:491,6
DA:492,5
DA:493,5
DA:495,1
DA:496,7
DA:498,1
DA:501,5
DA:502,4
DA:506,2
DA:507,1
DA:508,7
DA:514,2
DA:515,5
DA:517,1
DA:518,2
DA:519,1
DA:522,1
DA:523,5
DA:525,3
DA:528,1
DA:529,2
DA:534,2
DA:535,5
DA:537,1
DA:538,2
DA:539,1
DA:543,3
DA:546,1
DA:547,2
DA:552,1
DA:553,1
DA:554,1
DA:556,1
DA:560,1
DA:561,6
DA:565,1
DA:566,1
DA:568,1
DA:569,1
DA:570,2
DA:579,1
DA:580,1
DA:582,1
DA:583,1
DA:584,2
DA:587,1
DA:588,1
DA:590,1
DA:591,1
DA:592,2
DA:595,1
DA:596,1
DA:597,1
DA:599,1
DA:605,1
DA:606,1
DA:607,2
DA:612,1
DA:613,1
DA:614,2
DA:619,1
DA:620,1
DA:621,2
DA:627,1
DA:628,1
DA:629,1
DA:630,6
DA:631,5
DA:634,5
DA:637,6
DA:638,5
DA:639,5
DA:644,1
DA:645,1
DA:646,2
DA:651,1
DA:652,1
DA:653,2
DA:658,1
DA:659,1
DA:660,2
DA:667,6
DA:668,5
DA:673,2
DA:675,1
DA:676,7
DA:682,1
DA:683,2
DA:685,1
DA:686,7
DA:692,6
DA:693,5
DA:696,5
DA:698,2
DA:700,1
DA:701,7
DA:707,1
DA:708,1
DA:709,2
DA:714,1
DA:715,1
DA:716,2
DA:721,1
DA:722,1
DA:723,2
DA:730,6
DA:731,5
DA:736,2
DA:738,1
DA:739,7
DA:744,1
DA:745,2
DA:747,1
DA:748,7
DA:754,6
DA:755,5
DA:758,5
DA:760,2
DA:762,1
DA:763,7
DA:768,1
DA:769,1
DA:770,1
DA:771,6
DA:772,5
DA:774,6
DA:776,6
DA:777,5
DA:781,1
DA:782,1
DA:783,1
DA:786,1
DA:787,2
DA:789,1
DA:792,1
DA:793,2
DA:795,1
DA:798,1
DA:799,2
DA:801,1
DA:804,1
DA:805,1
DA:806,1
DA:809,1
DA:810,2
DA:813,1
DA:814,7
DA:818,1
DA:819,2
DA:822,1
DA:823,7
DA:827,1
DA:828,2
DA:831,1
DA:832,7
DA:836,1
DA:837,1
DA:838,1
DA:840,1
DA:853,1
DA:855,1
DA:856,6
DA:857,5
DA:858,5
DA:861,1
DA:862,6
DA:863,5
DA:866,5
DA:868,2
DA:871,1
DA:872,7
DA:877,1
DA:878,1
DA:879,2
DA:880,2
DA:883,1
DA:884,1
DA:885,1
DA:886,2
DA:887,1
DA:888,7
DA:891,1
DA:892,7
DA:894,1
DA:897,1
DA:898,5
DA:899,4
DA:904,2
DA:906,1
DA:907,6
DA:913,1
DA:914,2
DA:915,2
DA:919,1
DA:920,1
DA:921,1
DA:922,2
DA:923,2
DA:926,1
DA:927,1
DA:928,1
DA:929,2
DA:930,2
DA:933,1
DA:934,8
DA:937,1
DA:939,2
DA:940,1
DA:943,1
DA:944,1
DA:945,1
DA:946,2
DA:947,2
DA:951,1
DA:953,1
DA:954,2
DA:955,2
DA:956,2
DA:959,1
DA:960,6
DA:963,1
DA:965,1
DA:966,6
DA:968,1
DA:969,1
DA:970,2
DA:971,1
DA:972,2
DA:976,1
DA:977,1
DA:979,6
DA:980,5
DA:982,1
DA:983,7
DA:988,1
DA:989,2
DA:990,6
DA:991,5
DA:996,2
DA:997,1
DA:998,7
DA:1004,2
DA:1005,6
DA:1006,5
DA:1011,2
DA:1012,1
DA:1013,7
DA:1018,1
DA:1019,6
DA:1020,5
DA:1022,2
DA:1023,5
DA:1024,1
DA:1025,1
DA:1026,2
DA:1027,1
DA:1031,1
DA:1032,6
DA:1033,2
DA:1035,3
DA:1036,1
DA:1037,2
DA:1043,2
DA:1044,5
DA:1045,1
DA:1046,1
DA:1047,2
DA:1048,1
DA:1052,2
DA:1054,3
DA:1055,1
DA:1056,2
DA:1062,1
DA:1063,2
DA:1065,1
DA:1069,1
DA:1070,1
DA:1071,7
DA:1074,1
DA:1075,2
DA:1077,1
DA:1078,7
DA:1082,1
DA:1083,1
DA:1084,2
DA:1086,1
DA:1090,1
DA:1091,6
DA:1092,5
DA:1098,1
DA:1099,1
DA:1101,1
DA:1102,1
DA:1103,2
DA:1110,1
DA:1111,1
DA:1113,1
DA:1114,1
DA:1116,2
DA:1121,1
DA:1122,1
DA:1124,1
DA:1125,1
DA:1127,2
DA:1132,1
DA:1133,1
DA:1135,1
DA:1136,1
DA:1138,2
DA:1143,1
DA:1144,1
DA:1146,1
DA:1147,1
DA:1149,2
DA:1154,1
DA:1155,1
DA:1157,1
DA:1158,1
DA:1159,2
DA:1165,1
DA:1166,1
DA:1168,1
DA:1169,1
DA:1170,2
DA:1176,1
DA:1177,1
DA:1178,1
DA:1179,2
DA:1182,1
DA:1183,1
DA:1184,1
DA:1186,1
DA:1191,1
DA:1192,1
DA:1193,2
DA:1198,1
DA:1199,1
DA:1200,2
DA:1205,1
DA:1206,1
DA:1207,2
DA:1214,1
DA:1215,1
DA:1217,6
DA:1218,5
DA:1219,7
DA:1220,2
DA:1222,5
DA:1225,1
DA:1226,6
DA:1227,10
DA:1228,5
DA:1229,0
DA:1231,5
DA:1234,1
DA:1235,6
DA:1236,5
DA:1237,5
DA:1238,0
DA:1240,5
DA:1243,1
DA:1244,1
DA:1245,2
DA:1250,1
DA:1251,1
DA:1252,2
DA:1257,1
DA:1258,1
DA:1259,2
DA:1265,6
DA:1266,5
DA:1271,2
DA:1272,1
DA:1273,7
DA:1275,1
DA:1276,7
DA:1282,6
DA:1283,5
DA:1288,2
DA:1289,1
DA:1290,7
DA:1292,1
DA:1293,7
DA:1298,6
DA:1299,5
DA:1304,2
DA:1305,1
DA:1306,7
DA:1308,1
DA:1309,7
DA:1313,1
DA:1314,1
DA:1315,2
DA:1320,1
DA:1321,1
DA:1322,2
DA:1327,1
DA:1328,1
DA:1329,2
DA:1336,1
DA:1337,1
DA:1338,2
DA:1340,1
DA:1343,1
DA:1344,1
DA:1345,2
DA:1347,1
DA:1350,1
DA:1351,1
DA:1352,2
DA:1354,1
DA:1358,6
DA:1359,5
DA:1364,2
DA:1365,1
DA:1366,7
DA:1368,1
DA:1369,7
DA:1374,6
DA:1375,5
DA:1380,2
DA:1381,1
DA:1382,7
DA:1384,1
DA:1385,7
DA:1390,6
DA:1391,5
DA:1396,2
DA:1397,1
DA:1398,7
DA:1400,1
DA:1401,7
DA:1407,1
DA:1408,1
DA:1409,2
DA:1412,1
DA:1413,7
DA:1417,1
DA:1418,1
DA:1419,2
DA:1422,1
DA:1423,7
DA:1427,1
DA:1428,1
DA:1429,2
DA:1432,1
DA:1433,7
DA:1436,1
DA:1437,1
DA:1438,2
DA:1440,1
DA:1454,1
DA:1455,1
DA:1456,8
DA:1457,7
DA:1459,1
DA:1460,4
DA:1461,9
DA:1462,6
DA:1468,2
DA:1470,1
DA:1471,6
DA:1476,1
DA:1479,2
DA:1481,1
DA:1482,6
DA:1484,1
DA:1485,6
DA:1490,1
DA:1491,1
DA:1493,2
DA:1496,1
DA:1497,6
DA:1503,1
DA:1504,1
DA:1505,1
DA:1508,2
DA:1509,1
DA:1510,7
DA:1512,2
DA:1513,1
DA:1514,2
DA:1515,1
DA:1516,6
DA:1518,1
DA:1519,7
DA:1521,1
DA:1525,1
DA:1526,1
DA:1527,2
DA:1528,2
DA:1531,1
DA:1532,2
DA:1533,2
DA:1536,1
DA:1537,1
DA:1538,1
DA:1539,2
DA:1540,2
DA:1542,2
DA:1546,1
DA:1547,1
DA:1548,2
DA:1549,2
DA:1552,1
DA:1553,2
DA:1554,2
DA:1557,1
DA:1558,1
DA:1559,1
DA:1560,2
DA:1561,2
DA:1563,2
DA:1567,1
DA:1568,1
DA:1569,1
DA:1570,6
DA:1571,5
DA:1572,5
DA:1574,1
DA:1575,1
DA:1576,2
DA:1577,1
DA:1578,7
DA:1580,1
DA:1581,7
DA:1585,1
DA:1586,1
DA:1587,2
DA:1588,1
DA:1589,6
DA:1591,14
DA:1592,10
DA:1597,5
DA:1598,4
DA:1602,1
DA:1603,6
DA:1607,1
DA:1609,1
DA:1611,1
DA:1612,1
DA:1613,2
DA:1614,1
DA:1618,6
DA:1621,1
DA:1622,1
DA:1623,2
DA:1624,1
DA:1628,1
DA:1629,1
DA:1630,1
DA:1631,1
DA:1632,2
DA:1633,1
DA:1634,5
DA:1636,1
DA:1637,5
DA:1641,1
DA:1644,1
DA:1645,1
DA:1646,2
DA:1647,1
DA:1648,5
DA:1650,1
DA:1651,5
DA:1653,2
DA:1659,5
DA:1662,1
DA:1663,1
DA:1664,2
DA:1665,1
DA:1669,1
DA:1670,1
DA:1671,1
DA:1672,2
DA:1673,1
DA:1675,1
DA:1676,1
DA:1677,2
DA:1678,1
DA:1679,4
DA:1681,1
DA:1682,4
DA:1686,1
DA:1689,1
DA:1690,1
DA:1691,2
DA:1692,1
DA:1693,4
DA:1695,1
DA:1696,4
DA:1698,2
DA:1701,1
DA:1702,1
DA:1703,8
DA:1706,1
DA:1707,2
DA:1708,1
DA:1709,2
DA:1710,1
DA:1715,1
DA:1716,8
DA:1720,1
DA:1721,5
DA:1722,2
DA:1724,3
DA:1725,1
DA:1726,2
DA:1730,3
DA:1732,1
DA:1733,1
DA:1734,2
DA:1738,1
DA:1739,1
DA:1740,1
DA:1742,1
DA:1745,1
DA:1750,1
DA:1751,1
DA:1753,1
DA:1754,1
DA:1755,2
DA:1761,1
DA:1762,1
DA:1764,1
DA:1765,1
DA:1766,2
DA:1773,1
DA:1775,1
DA:1776,1
DA:1777,2
DA:1783,1
DA:1784,1
DA:1786,1
DA:1787,1
DA:1788,2
DA:1795,1
DA:1797,1
DA:1798,1
DA:1799,2
DA:1806,1
DA:1808,1
DA:1809,1
DA:1810,2
DA:1816,1
DA:1817,1
DA:1819,1
DA:1820,1
DA:1821,2
DA:1827,1
DA:1828,1
DA:1830,1
DA:1831,1
DA:1832,2
DA:1838,1
DA:1839,1
DA:1841,1
DA:1842,1
DA:1843,2
DA:1849,1
DA:1850,1
DA:1852,1
DA:1853,1
DA:1854,2
DA:1859,1
DA:1860,7
DA:1863,1
DA:1864,1
DA:1866,1
DA:1867,1
DA:1868,2
DA:1872,7
DA:1876,1
DA:1877,1
DA:1879,1
DA:1880,1
DA:1881,2
DA:1885,7
DA:1889,1
DA:1890,1
DA:1892,1
DA:1893,1
DA:1894,2
DA:1898,7
DA:1901,1
DA:1902,1
DA:1903,2
DA:1904,1
DA:1908,6
DA:1911,1
DA:1912,1
DA:1913,2
DA:1914,1
DA:1915,1
DA:1918,1
DA:1923,1
DA:1924,1
DA:1926,1
DA:1927,1
DA:1928,2
DA:1934,1
DA:1935,1
DA:1937,1
DA:1938,1
DA:1939,2
DA:1945,1
DA:1946,1
DA:1948,1
DA:1949,1
DA:1950,2
DA:1955,1
DA:1956,7
DA:1959,1
DA:1960,1
DA:1962,1
DA:1963,1
DA:1964,2
DA:1968,7
DA:1972,1
DA:1973,1
DA:1975,1
DA:1976,1
DA:1977,2
DA:1981,7
DA:1985,1
DA:1986,1
DA:1988,1
DA:1989,1
DA:1990,2
DA:1994,1
DA:1995,1
DA:1998,3
DA:2001,1
DA:2003,2
DA:2004,1
DA:2007,1
DA:2010,3
DA:2013,1
DA:2014,1
DA:2015,2
DA:2016,1
DA:2017,1
DA:2020,1
DA:2021,1
DA:2022,1
DA:2024,1
DA:2028,1
DA:2029,1
DA:2030,2
DA:2035,1
DA:2036,1
DA:2037,2
DA:2042,1
DA:2043,1
DA:2044,2
DA:2050,1
DA:2051,1
DA:2052,6
DA:2053,5
DA:2054,12
DA:2055,7
DA:2057,5
DA:2060,1
DA:2061,1
DA:2062,6
DA:2063,10
DA:2064,5
DA:2065,0
DA:2067,5
DA:2070,1
DA:2071,1
DA:2072,6
DA:2073,5
DA:2074,5
DA:2075,0
DA:2077,5
DA:2081,1
DA:2082,1
DA:2083,2
DA:2088,1
DA:2089,1
DA:2090,2
DA:2095,1
DA:2096,1
DA:2097,2
DA:2103,6
DA:2104,5
DA:2109,2
DA:2110,1
DA:2111,7
DA:2113,1
DA:2114,7
DA:2119,6
DA:2120,5
DA:2125,2
DA:2126,1
DA:2127,7
DA:2129,1
DA:2130,7
DA:2135,6
DA:2136,5
DA:2141,2
DA:2142,1
DA:2143,7
DA:2145,1
DA:2146,7
DA:2150,1
DA:2151,1
DA:2152,2
DA:2157,1
DA:2158,1
DA:2159,2
DA:2164,1
DA:2165,1
DA:2166,2
DA:2172,1
DA:2173,1
DA:2174,2
DA:2176,1
DA:2179,1
DA:2180,1
DA:2181,2
DA:2183,1
DA:2186,1
DA:2187,1
DA:2188,2
DA:2190,1
DA:2194,6
DA:2195,5
DA:2200,2
DA:2201,1
DA:2202,7
DA:2204,1
DA:2205,7
DA:2210,6
DA:2211,5
DA:2216,2
DA:2217,1
DA:2218,7
DA:2220,1
DA:2221,7
DA:2226,6
DA:2227,5
DA:2232,2
DA:2233,1
DA:2234,7
DA:2236,1
DA:2237,7
DA:2242,1
DA:2243,1
DA:2244,2
DA:2247,1
DA:2248,7
DA:2252,1
DA:2253,1
DA:2254,2
DA:2257,1
DA:2258,7
DA:2262,1
DA:2263,1
DA:2264,2
DA:2267,1
DA:2268,7
DA:2271,1
DA:2272,1
DA:2273,2
DA:2275,1
DA:2289,1
DA:2290,1
DA:2291,8
DA:2292,7
DA:2294,1
DA:2295,4
DA:2296,9
DA:2297,6
DA:2303,2
DA:2305,1
DA:2306,6
DA:2311,1
DA:2312,1
DA:2313,1
DA:2314,2
DA:2316,1
DA:2317,6
DA:2319,1
DA:2320,6
DA:2325,1
DA:2326,1
DA:2328,2
DA:2331,1
DA:2332,6
DA:2337,1
DA:2338,1
DA:2339,2
DA:2340,2
DA:2342,1
DA:2343,1
DA:2344,2
DA:2345,2
DA:2348,1
DA:2349,1
DA:2350,1
DA:2351,2
DA:2352,2
DA:2354,2
DA:2358,1
DA:2359,1
DA:2360,2
DA:2361,2
DA:2363,1
DA:2364,1
DA:2365,2
DA:2366,2
DA:2369,1
DA:2370,1
DA:2371,1
DA:2372,2
DA:2373,2
DA:2375,2
DA:2380,1
DA:2381,1
DA:2382,8
DA:2385,1
DA:2386,1
DA:2387,2
DA:2388,1
DA:2392,1
DA:2393,1
DA:2394,1
DA:2395,1
DA:2396,2
DA:2397,1
DA:2398,7
DA:2400,1
DA:2401,7
DA:2405,1
DA:2408,1
DA:2409,1
DA:2410,2
DA:2411,1
DA:2412,7
DA:2414,1
DA:2415,7
DA:2417,2
DA:2422,7
DA:2425,1
DA:2426,1
DA:2427,2
DA:2428,1
DA:2432,1
DA:2433,1
DA:2434,1
DA:2435,2
DA:2436,1
DA:2437,6
DA:2439,1
DA:2440,6
DA:2444,1
DA:2447,1
DA:2448,1
DA:2449,2
DA:2450,1
DA:2451,6
DA:2453,1
DA:2454,6
DA:2456,2
DA:2461,6
DA:2464,1
DA:2465,1
DA:2466,2
DA:2467,2
DA:2468,2
DA:2469,3
DA:2473,1
DA:2474,1
DA:2475,1
DA:2476,2
DA:2477,2
DA:2478,2
DA:2479,2
DA:2483,1
DA:2484,6
DA:2488,2
DA:2489,4
DA:2490,1
DA:2491,1
DA:2492,2
DA:2493,1
DA:2497,1
DA:2498,2
DA:2500,1
DA:2501,2
DA:2504,1
DA:2505,6
DA:2507,2
DA:2509,3
DA:2510,1
DA:2511,2
DA:2516,2
DA:2517,4
DA:2519,1
DA:2520,2
DA:2521,1
DA:2525,3
DA:2527,1
DA:2528,1
DA:2529,2
DA:2532,1
DA:2534,1
DA:2535,1
DA:2537,1
DA:2542,1
DA:2543,1
DA:2547,1
DA:2548,1
DA:2550,1
DA:2551,1
DA:2552,2
DA:2558,1
DA:2559,1
DA:2561,1
DA:2562,1
DA:2563,2
DA:2569,1
DA:2570,1
DA:2572,1
DA:2573,1
DA:2574,2
DA:2580,1
DA:2581,1
DA:2583,1
DA:2584,1
DA:2585,2
DA:2591,1
DA:2592,1
DA:2594,1
DA:2595,1
DA:2596,2
DA:2602,1
DA:2603,1
DA:2605,1
DA:2606,1
DA:2607,2
DA:2613,1
DA:2614,1
DA:2616,1
DA:2617,1
DA:2618,2
DA:2624,1
DA:2625,1
DA:2627,1
DA:2628,1
DA:2629,2
DA:2635,1
DA:2636,1
DA:2638,1
DA:2639,1
DA:2640,2
DA:2646,1
DA:2647,1
DA:2649,1
DA:2650,1
DA:2651,2
DA:2657,1
DA:2658,1
DA:2660,1
DA:2661,1
DA:2662,2
DA:2668,1
DA:2669,1
DA:2671,1
DA:2672,1
DA:2673,2
DA:2679,1
DA:2680,1
DA:2682,1
DA:2683,1
DA:2684,2
DA:2690,1
DA:2691,1
DA:2693,1
DA:2694,1
DA:2695,2
DA:2698,1
DA:2699,1
DA:2700,7
DA:2706,1
DA:2707,1
DA:2709,1
DA:2710,1
DA:2711,2
DA:2715,7
DA:2719,1
DA:2720,1
DA:2722,1
DA:2723,1
DA:2724,2
DA:2728,7
DA:2732,1
DA:2733,1
DA:2735,1
DA:2736,1
DA:2737,2
DA:2740,1
DA:2741,7
DA:2745,1
DA:2746,1
DA:2748,1
DA:2749,1
DA:2750,2
DA:2754,7
DA:2758,1
DA:2759,1
DA:2761,1
DA:2762,1
DA:2763,2
DA:2767,7
DA:2771,1
DA:2772,1
DA:2774,1
DA:2775,1
DA:2776,2
DA:2781,1
DA:2782,1
DA:2783,1
DA:2784,6
DA:2786,1
DA:2790,1
DA:2791,1
DA:2792,1
DA:2793,5
DA:2795,1
DA:2799,1
DA:2800,1
DA:2801,1
DA:2802,4
DA:2804,1
DA:2808,1
DA:2809,1
DA:2810,1
DA:2811,3
DA:2813,1
DA:2816,1
DA:2817,1
DA:2818,1
DA:2819,1
DA:2820,2
DA:2822,1
DA:2824,1
DA:2825,1
DA:2826,1
DA:2827,2
DA:2829,1
DA:2832,1
DA:2833,1
DA:2834,1
DA:2835,1
DA:2836,2
DA:2838,1
DA:2840,1
DA:2841,1
DA:2842,1
DA:2843,2
DA:2845,1
DA:2847,1
DA:2848,1
DA:2849,1
DA:2851,1
DA:2855,1
DA:2856,1
DA:2857,2
DA:2862,1
DA:2863,1
DA:2864,2
DA:2869,1
DA:2870,1
DA:2871,2
DA:2877,1
DA:2878,1
DA:2879,6
DA:2880,5
DA:2881,8
DA:2882,3
DA:2884,5
DA:2887,1
DA:2888,1
DA:2889,6
DA:2890,10
DA:2891,6
DA:2892,2
DA:2894,5
DA:2897,1
DA:2898,1
DA:2899,6
DA:2900,5
DA:2901,5
DA:2902,0
DA:2904,5
DA:2907,1
DA:2908,1
DA:2909,2
DA:2914,1
DA:2915,1
DA:2916,2
DA:2921,1
DA:2922,1
DA:2923,2
DA:2929,6
DA:2930,5
DA:2935,2
DA:2936,1
DA:2937,7
DA:2939,1
DA:2940,7
DA:2945,6
DA:2946,5
DA:2951,2
DA:2952,1
DA:2953,7
DA:2955,1
DA:2956,7
DA:2961,6
DA:2962,5
DA:2967,2
DA:2968,1
DA:2969,7
DA:2971,1
DA:2972,7
DA:2976,1
DA:2977,1
DA:2978,2
DA:2983,1
DA:2984,1
DA:2985,2
DA:2990,1
DA:2991,1
DA:2992,2
DA:2998,1
DA:2999,1
DA:3000,2
DA:3002,1
DA:3005,1
DA:3006,1
DA:3007,2
DA:3009,1
DA:3012,1
DA:3013,1
DA:3014,2
DA:3016,1
DA:3020,6
DA:3021,5
DA:3026,2
DA:3027,1
DA:3028,7
DA:3030,1
DA:3031,7
DA:3036,6
DA:3037,5
DA:3042,2
DA:3043,1
DA:3044,7
DA:3046,1
DA:3047,7
DA:3052,6
DA:3053,5
DA:3058,2
DA:3059,1
DA:3060,7
DA:3062,1
DA:3063,7
DA:3068,1
DA:3069,1
DA:3070,2
DA:3073,1
DA:3074,7
DA:3078,1
DA:3079,1
DA:3080,2
DA:3083,1
DA:3084,7
DA:3088,1
DA:3089,1
DA:3090,2
DA:3093,1
DA:3094,7
DA:3098,1
DA:3099,1
DA:3100,2
DA:3102,1
DA:3115,1
DA:3116,1
DA:3117,8
DA:3118,7
DA:3119,7
DA:3121,1
DA:3124,2
DA:3126,1
DA:3127,9
DA:3129,1
DA:3130,9
DA:3136,1
DA:3138,2
DA:3141,1
DA:3142,9
DA:3146,1
DA:3149,9
DA:3152,1
DA:3153,1
DA:3154,2
DA:3155,2
DA:3156,2
DA:3157,3
DA:3161,1
DA:3162,1
DA:3163,1
DA:3164,1
DA:3165,2
DA:3166,2
DA:3167,2
DA:3168,2
DA:3172,1
DA:3173,9
DA:3177,2
DA:3178,7
DA:3179,1
DA:3180,1
DA:3181,2
DA:3182,1
DA:3185,1
DA:3186,6
DA:3187,1
DA:3189,2
DA:3191,3
DA:3192,1
DA:3193,2
DA:3198,2
DA:3199,7
DA:3201,1
DA:3202,2
DA:3203,1
DA:3207,3
DA:3209,1
DA:3210,1
DA:3211,2
DA:3215,1
DA:3216,1
DA:3217,6
DA:3218,5
DA:3219,5
DA:3221,1
DA:3223,1
DA:3224,2
DA:3225,1
DA:3231,6
DA:3232,5
DA:3234,2
DA:3235,1
DA:3236,1
DA:3237,7
DA:3241,1
DA:3242,1
DA:3243,2
DA:3245,1
DA:3250,1
DA:3254,1
DA:3255,1
DA:3257,1
DA:3258,1
DA:3259,2
DA:3264,1
DA:3265,2
DA:3271,1
DA:3276,2
DA:3287,2
DA:3290,1
DA:3291,1
DA:3292,1
DA:3294,1
DA:3298,1
DA:3299,1
DA:3300,2
DA:3305,1
DA:3306,1
DA:3307,2
DA:3312,1
DA:3313,1
DA:3314,2
DA:3320,1
DA:3321,1
DA:3322,6
DA:3323,5
DA:3324,5
DA:3325,0
DA:3327,5
DA:3330,1
DA:3331,1
DA:3332,6
DA:3333,10
DA:3334,6
DA:3335,2
DA:3337,5
DA:3340,1
DA:3341,1
DA:3342,6
DA:3343,5
DA:3344,5
DA:3345,0
DA:3347,5
DA:3350,1
DA:3351,1
DA:3352,2
DA:3357,1
DA:3358,1
DA:3359,2
DA:3364,1
DA:3365,1
DA:3366,2
DA:3372,6
DA:3373,5
DA:3378,2
DA:3379,1
DA:3380,7
DA:3382,1
DA:3383,7
DA:3388,6
DA:3389,5
DA:3394,2
DA:3395,1
DA:3396,7
DA:3398,1
DA:3399,7
DA:3404,6
DA:3405,5
DA:3410,2
DA:3411,1
DA:3412,7
DA:3414,1
DA:3415,7
DA:3419,1
DA:3420,1
DA:3421,2
DA:3426,1
DA:3427,1
DA:3428,2
DA:3433,1
DA:3434,1
DA:3435,2
DA:3441,1
DA:3442,1
DA:3443,2
DA:3445,1
DA:3448,1
DA:3449,1
DA:3450,2
DA:3452,1
DA:3455,1
DA:3456,1
DA:3457,2
DA:3459,1
DA:3463,6
DA:3464,5
DA:3469,2
DA:3470,1
DA:3471,7
DA:3473,1
DA:3474,7
DA:3479,6
DA:3480,5
DA:3485,2
DA:3486,1
DA:3487,7
DA:3489,1
DA:3490,7
DA:3495,6
DA:3496,5
DA:3501,2
DA:3502,1
DA:3503,7
DA:3505,1
DA:3506,7
DA:3511,1
DA:3512,1
DA:3513,2
DA:3516,1
DA:3517,7
DA:3521,1
DA:3522,1
DA:3523,2
DA:3526,1
DA:3527,7
DA:3531,1
DA:3532,1
DA:3533,2
DA:3536,1
DA:3537,7
DA:3541,1
DA:3542,1
DA:3543,2
DA:3545,1
DA:3558,1
DA:3559,1
DA:3560,8
DA:3561,7
DA:3562,7
DA:3564,1
DA:3565,1
DA:3567,2
DA:3569,1
DA:3570,9
DA:3572,1
DA:3573,9
DA:3578,1
DA:3579,1
DA:3581,2
DA:3584,1
DA:3585,9
DA:3589,1
DA:3592,9
DA:3595,1
DA:3596,1
DA:3597,2
DA:3598,2
DA:3599,2
DA:3600,3
DA:3604,1
DA:3605,1
DA:3606,1
DA:3607,1
DA:3608,2
DA:3609,2
DA:3610,2
DA:3611,2
DA:3615,1
DA:3616,9
DA:3620,2
DA:3621,7
DA:3622,1
DA:3623,1
DA:3624,2
DA:3625,1
DA:3628,1
DA:3629,6
DA:3630,1
DA:3632,2
DA:3634,3
DA:3635,1
DA:3636,2
DA:3641,2
DA:3642,7
DA:3644,1
DA:3645,2
DA:3646,1
DA:3650,3
DA:3652,1
DA:3653,1
DA:3654,2
DA:3658,1
DA:3659,1
DA:3660,6
DA:3661,5
DA:3662,5
DA:3664,1
DA:3667,1
DA:3668,2
DA:3669,2
DA:3672,1
DA:3673,1
DA:3674,1
DA:3675,2
DA:3676,2
DA:3677,1
DA:3678,1
DA:3681,1
DA:3682,1
DA:3683,1
DA:3684,1
DA:3685,2
DA:3686,2
DA:3687,1
DA:3688,2
DA:3689,1
DA:3695,1
DA:3696,1
DA:3698,1
DA:3700,1
DA:3701,1
DA:3702,2
DA:3703,1
DA:3707,1
DA:3708,1
DA:3709,1
DA:3710,2
DA:3711,1
DA:3716,1
DA:3717,1
DA:3718,1
DA:3719,2
DA:3720,1
DA:3723,1
DA:3724,1
DA:3725,1
DA:3726,2
DA:3727,1
DA:3732,1
DA:3733,1
DA:3734,2
DA:3735,1
DA:3737,1
DA:3738,1
DA:3739,2
DA:3741,1
DA:3746,1
DA:3750,1
DA:3751,1
DA:3753,1
DA:3754,1
DA:3755,2
DA:3761,1
DA:3762,1
DA:3764,1
DA:3765,1
DA:3766,2
DA:3771,1
DA:3772,1
DA:3774,1
DA:3775,1
DA:3776,2
DA:3781,1
DA:3782,1
DA:3784,1
DA:3785,1
DA:3786,2
DA:3790,1
DA:3792,2
DA:3795,1
DA:3796,1
DA:3800,1
DA:3801,4
DA:3802,1
DA:3803,1
DA:3804,1
DA:3805,4
DA:3807,2
DA:3810,1
DA:3811,1
DA:3812,1
DA:3814,1
DA:3817,1
DA:3818,2
DA:3819,1
DA:3820,1
DA:3821,1
DA:3822,18
DA:3823,11
DA:3824,1
DA:3826,1
DA:3828,1
DA:3830,1
DA:3832,1
DA:3835,1
DA:3837,1
DA:3839,1
DA:3842,1
DA:3844,1
DA:3846,1
DA:3849,1
DA:3851,1
DA:3853,1
DA:3856,1
DA:3858,1
DA:3860,1
DA:3863,1
DA:3865,1
DA:3867,1
DA:3870,1
DA:3872,1
LF:1875
LH:1868
end_of_record
TN:
SF:/usr/include/c++/13/bits/allocator.h
FNF:0
FNH:0
DA:198,541
DA:210,481
LF:2
LH:2
end_of_record
TN:
SF:/usr/include/c++/13/bits/basic_string.h
FN:1455,1460,_ZNSt7__cxx1112basic_stringIcSt11char_traitsIcESaIcEE6appendEPKcm
FN:1469,1475,_ZNSt7__cxx1112basic_stringIcSt11char_traitsIcESaIcEE6appendEPKc
FN:1681,1686,_ZNSt7__cxx1112basic_stringIcSt11char_traitsIcESaIcEE6assignEPKc
FN:1962,1967,_ZNSt7__cxx1112basic_stringIcSt11char_traitsIcESaIcEE6insertEmPKc
FN:2204,2210,_ZNSt7__cxx1112basic_stringIcSt11char_traitsIcESaIcEE7replaceEmmPKcm
FN:280,284,_ZNSt7__cxx1112basic_stringIcSt11char_traitsIcESaIcEE10_M_disposeEv
FN:3183,3193,_ZNKSt7__cxx1112basic_stringIcSt11char_traitsIcESaIcEE7compareERKS4_
FN:3528,3541,_ZSt12__str_concatINSt7__cxx1112basic_stringIcSt11char_traitsIcESaIcEEEET_PKNS6_10value_typeENS6_9size_typeES9_SA_RKNS6_14allocator_typeE
FN:3651,3669,_ZStplIcSt11char_traitsIcESaIcEENSt7__cxx1112basic_stringIT_T0_T1_EEOS8_S9_
FN:3710,3716,_ZSteqIcSt11char_traitsIcESaIcEEbRKNSt7__cxx1112basic_stringIT_T0_T1_EESA_
FN:3727,3732,_ZSteqIcSt11char_traitsIcESaIcEEbRKNSt7__cxx1112basic_stringIT_T0_T1_EEPKS5_
FN:4204,4212,_ZNSt7__cxx119to_stringEm
FN:641,650,_ZNSt7__cxx1112basic_stringIcSt11char_traitsIcESaIcEEC2IS3_EEPKcRKS3_
FN:677,698,_ZNSt7__cxx1112basic_stringIcSt11char_traitsIcESaIcEEC2EOS4_
FN:853,913,_ZNSt7__cxx1112basic_stringIcSt11char_traitsIcESaIcEEaSEOS4_
FNDA:729,_ZNSt7__cxx1112basic_stringIcSt11char_traitsIcESaIcEE6appendEPKcm
FNDA:22,_ZNSt7__cxx1112basic_stringIcSt11char_traitsIcESaIcEE6appendEPKc
FNDA:10,_ZNSt7__cxx1112basic_stringIcSt11char_traitsIcESaIcEE6assignEPKc
FNDA:11,_ZNSt7__cxx1112basic_stringIcSt11char_traitsIcESaIcEE6insertEmPKc
FNDA:11,_ZNSt7__cxx1112basic_stringIcSt11char_traitsIcESaIcEE7replaceEmmPKcm
FNDA:1702,_ZNSt7__cxx1112basic_stringIcSt11char_traitsIcESaIcEE10_M_disposeEv
FNDA:269,_ZNKSt7__cxx1112basic_stringIcSt11char_traitsIcESaIcEE7compareERKS4_
FNDA:58,_ZSt12__str_concatINSt7__cxx1112basic_stringIcSt11char_traitsIcESaIcEEEET_PKNS6_10value_typeENS6_9size_typeES9_SA_RKNS6_14allocator_typeE
FNDA:11,_ZStplIcSt11char_traitsIcESaIcEENSt7__cxx1112basic_stringIT_T0_T1_EEOS8_S9_
FNDA:420,_ZSteqIcSt11char_traitsIcESaIcEEbRKNSt7__cxx1112basic_stringIT_T0_T1_EESA_
FNDA:37,_ZSteqIcSt11char_traitsIcESaIcEEbRKNSt7__cxx1112basic_stringIT_T0_T1_EEPKS5_
FNDA:22,_ZNSt7__cxx119to_stringEm
FNDA:684,_ZNSt7__cxx1112basic_stringIcSt11char_traitsIcESaIcEEC2IS3_EEPKcRKS3_
FNDA:119,_ZNSt7__cxx1112basic_stringIcSt11char_traitsIcESaIcEEC2EOS4_
FNDA:374,_ZNSt7__cxx1112basic_stringIcSt11char_traitsIcESaIcEEaSEOS4_
FNF:15
FNH:15
DA:188,684
DA:189,786
DA:192,677
DA:193,1211
DA:213,547
DA:218,3813
DA:223,751
DA:230,1066
DA:241,4006
DA:250,595
DA:257,1645
DA:258,463
DA:264,1651
DA:266,3112
DA:267,0
DA:280,1702
DA:283,481
DA:284,1702
DA:289,481
DA:337,1022
DA:388,11
DA:389,0
DA:399,772
DA:400,0
DA:409,11
DA:410,11
DA:417,21
DA:418,31
DA:427,2861
DA:437,11
DA:447,44
DA:490,9
DA:492,9
DA:494,9
DA:497,9
DA:522,280
DA:524,280
DA:547,278
DA:548,812
DA:551,812
DA:553,63
DA:641,684
DA:645,684
DA:646,0
DA:648,684
DA:649,684
DA:650,684
DA:666,22
DA:677,119
DA:683,74
DA:689,45
DA:698,119
DA:804,1640
DA:814,102
DA:824,10
DA:853,374
DA:874,314
DA:876,314
DA:892,54
DA:900,60
DA:901,60
DA:912,374
DA:1072,1118
DA:1079,1514
DA:1171,260
DA:1425,613
DA:1455,729
DA:1459,729
DA:1469,22
DA:1474,22
DA:1608,188
DA:1681,10
DA:1684,10
DA:1685,10
DA:1895,0
DA:1962,11
DA:1965,11
DA:1966,11
DA:2204,11
DA:2208,11
DA:2209,11
DA:3183,269
DA:3185,269
DA:3186,269
DA:3187,269
DA:3190,269
DA:3192,269
DA:3528,58
DA:3536,58
DA:3537,58
DA:3538,58
DA:3539,58
DA:3540,58
DA:3559,58
DA:3651,11
DA:3664,11
DA:3665,22
DA:3666,0
DA:3668,11
DA:3676,11
DA:3690,22
DA:3710,420
DA:3715,833
DA:3727,37
DA:3731,69
DA:3748,269
DA:3997,147
DA:4037,1299
DA:4204,22
DA:4209,44
DA:4210,22
DA:4211,22
LF:112
LH:106
end_of_record
TN:
SF:/usr/include/c++/13/bits/basic_string.tcc
FN:138,160,_ZNSt7__cxx1112basic_stringIcSt11char_traitsIcESaIcEE9_M_createERmm
FN:221,252,_ZNSt7__cxx1112basic_stringIcSt11char_traitsIcESaIcEE12_M_constructIPKcEEvT_S8_St20forward_iterator_tag
FN:221,252,_ZNSt7__cxx1112basic_stringIcSt11char_traitsIcESaIcEE12_M_constructIPcEEvT_S7_St20forward_iterator_tag
FN:257,272,_ZNSt7__cxx1112basic_stringIcSt11char_traitsIcESaIcEE12_M_constructEmc
FN:277,299,_ZNSt7__cxx1112basic_stringIcSt11char_traitsIcESaIcEE9_M_assignERKS4_
FN:304,320,_ZNSt7__cxx1112basic_stringIcSt11char_traitsIcESaIcEE7reserveEm
FN:325,345,_ZNSt7__cxx1112basic_stringIcSt11char_traitsIcESaIcEE9_M_mutateEmmPKcm
FN:413,428,_ZNSt7__cxx1112basic_stringIcSt11char_traitsIcESaIcEE9_M_appendEPKcm
FN:511,552,_ZNSt7__cxx1112basic_stringIcSt11char_traitsIcESaIcEE10_M_replaceEmmPKcm
FN:59,133,_ZNSt7__cxx1112basic_stringIcSt11char_traitsIcESaIcEE4swapERS4_
FNDA:541,_ZNSt7__cxx1112basic_stringIcSt11char_traitsIcESaIcEE9_M_createERmm
FNDA:684,_ZNSt7__cxx1112basic_stringIcSt11char_traitsIcESaIcEE12_M_constructIPKcEEvT_S8_St20forward_iterator_tag
FNDA:812,_ZNSt7__cxx1112basic_stringIcSt11char_traitsIcESaIcEE12_M_constructIPcEEvT_S7_St20forward_iterator_tag
FNDA:44,_ZNSt7__cxx1112basic_stringIcSt11char_traitsIcESaIcEE12_M_constructEmc
FNDA:149,_ZNSt7__cxx1112basic_stringIcSt11char_traitsIcESaIcEE9_M_assignERKS4_
FNDA:58,_ZNSt7__cxx1112basic_stringIcSt11char_traitsIcESaIcEE7reserveEm
FNDA:142,_ZNSt7__cxx1112basic_stringIcSt11char_traitsIcESaIcEE9_M_mutateEmmPKcm
FNDA:751,_ZNSt7__cxx1112basic_stringIcSt11char_traitsIcESaIcEE9_M_appendEPKcm
FNDA:21,_ZNSt7__cxx1112basic_stringIcSt11char_traitsIcESaIcEE10_M_replaceEmmPKcm
FNDA:147,_ZNSt7__cxx1112basic_stringIcSt11char_traitsIcESaIcEE4swapERS4_
FNF:10
FNH:10
DA:59,147
DA:62,147
DA:70,147
DA:72,102
DA:73,102
DA:75,102
DA:80,45
DA:83,37
DA:87,37
DA:89,8
DA:92,8
DA:96,8
DA:101,0
DA:103,0
DA:111,0
DA:115,0
DA:125,0
DA:138,541
DA:143,541
DA:144,0
DA:149,541
DA:151,131
DA:153,131
DA:154,0
DA:159,541
DA:221,1496
DA:225,1496
DA:227,1496
DA:229,399
DA:230,399
DA:239,1496
DA:242,1496
DA:245,1496
DA:249,1496
DA:251,1496
DA:252,1496
DA:257,44
DA:260,44
DA:262,0
DA:263,0
DA:268,44
DA:271,44
DA:272,44
DA:277,149
DA:280,149
DA:285,149
DA:287,0
DA:288,0
DA:289,0
DA:291,0
DA:294,149
DA:299,149
DA:304,58
DA:312,58
DA:315,0
DA:316,0
DA:317,0
DA:319,0
DA:325,142
DA:329,142
DA:331,142
DA:332,142
DA:334,142
DA:336,142
DA:337,142
DA:338,142
DA:339,0
DA:340,0
DA:342,142
DA:344,142
DA:345,142
DA:413,751
DA:416,751
DA:418,751
DA:420,609
DA:421,597
DA:424,142
DA:427,751
DA:511,21
DA:518,21
DA:520,21
DA:522,21
DA:524,21
DA:537,21
DA:539,21
DA:540,11
DA:541,21
DA:545,0
DA:548,0
DA:551,21
LF:90
LH:69
end_of_record
TN:
SF:/usr/include/c++/13/bits/char_traits.h
FNF:0
FNH:0
DA:358,2342
DA:359,1380
DA:376,719
DA:389,714
DA:399,764
DA:423,0
DA:429,1174
DA:435,1943
DA:447,0
LF:9
LH:7
end_of_record
TN:
SF:/usr/include/c++/13/bits/charconv.h
FN:81,110,_ZNSt8__detail18__to_chars_10_implImEEvPcjT_
FNDA:22,_ZNSt8__detail18__to_chars_10_implImEEvPcjT_
FNF:1
FNH:1
DA:67,22
DA:68,0
DA:69,0
DA:70,0
DA:71,0
DA:72,0
DA:81,22
DA:87,22
DA:93,22
DA:94,22
DA:96,0
DA:97,0
DA:98,0
DA:99,0
DA:100,0
DA:102,22
DA:104,0
DA:105,0
DA:106,0
DA:109,22
DA:110,22
LF:21
LH:8
end_of_record
TN:
SF:/usr/include/c++/13/bits/invoke.h
FNF:0
FNH:0
DA:61,4898
LF:1
LH:1
end_of_record
TN:
SF:/usr/include/c++/13/bits/locale_facets.h
FN:1092,1093,_ZNKSt5ctypeIcE8do_widenEc
FN:880,886,_ZNKSt5ctypeIcE5widenEc
FNDA:2,_ZNKSt5ctypeIcE8do_widenEc
FNDA:2003,_ZNKSt5ctypeIcE5widenEc
FNF:2
FNH:2
DA:880,2003
DA:882,2003
DA:883,2001
DA:884,2
DA:885,2
DA:1092,2
DA:1093,2
LF:7
LH:7
end_of_record
TN:
SF:/usr/include/c++/13/bits/move.h
FN:189,200,_ZSt4swapIN4lasd4ListINSt7__cxx1112basic_stringIcSt11char_traitsIcESaIcEEEEEENSt9enable_ifIXsrSt6__and_IJSt6__not_ISt15__is_tuple_likeIT_EESt21is_move_constructibleISD_ESt18is_move_assignableISD_EEE5valueEvE4typeERSD_SN_
FN:189,200,_ZSt4swapIN4lasd4ListIiEEENSt9enable_ifIXsrSt6__and_IJSt6__not_ISt15__is_tuple_likeIT_EESt21is_move_constructibleIS7_ESt18is_move_assignableIS7_EEE5valueEvE4typeERS7_SH_
FN:189,200,_ZSt4swapIN4lasd6PQHeapIiEEENSt9enable_ifIXsrSt6__and_IJSt6__not_ISt15__is_tuple_likeIT_EESt21is_move_constructibleIS7_ESt18is_move_assignableIS7_EEE5valueEvE4typeERS7_SH_
FN:189,200,_ZSt4swapIN4lasd6SetVecIiEEENSt9enable_ifIXsrSt6__and_IJSt6__not_ISt15__is_tuple_likeIT_EESt21is_move_constructibleIS7_ESt18is_move_assignableIS7_EEE5valueEvE4typeERS7_SH_
FN:189,200,_ZSt4swapIN4lasd6VectorIiEEENSt9enable_ifIXsrSt6__and_IJSt6__not_ISt15__is_tuple_likeIT_EESt21is_move_constructibleIS7_ESt18is_move_assignableIS7_EEE5valueEvE4typeERS7_SH_
FNDA:0,_ZSt4swapIN4lasd4ListINSt7__cxx1112basic_stringIcSt11char_traitsIcESaIcEEEEEENSt9enable_ifIXsrSt6__and_IJSt6__not_ISt15__is_tuple_likeIT_EESt21is_move_constructibleISD_ESt18is_move_assignableISD_EEE5valueEvE4typeERSD_SN_
FNDA:2,_ZSt4swapIN4lasd4ListIiEEENSt9enable_ifIXsrSt6__and_IJSt6__not_ISt15__is_tuple_likeIT_EESt21is_move_constructibleIS7_ESt18is_move_assignableIS7_EEE5valueEvE4typeERS7_SH_
FNDA:3,_ZSt4swapIN4lasd6PQHeapIiEEENSt9enable_ifIXsrSt6__and_IJSt6__not_ISt15__is_tuple_likeIT_EESt21is_move_constructibleIS7_ESt18is_move_assignableIS7_EEE5valueEvE4typeERS7_SH_
FNDA:4,_ZSt4swapIN4lasd6SetVecIiEEENSt9enable_ifIXsrSt6__and_IJSt6__not_ISt15__is_tuple_likeIT_EESt21is_move_constructibleIS7_ESt18is_move_assignableIS7_EEE5valueEvE4typeERS7_SH_
FNDA:7,_ZSt4swapIN4lasd6VectorIiEEENSt9enable_ifIXsrSt6__and_IJSt6__not_ISt15__is_tuple_likeIT_EESt21is_move_constructibleIS7_ESt18is_move_assignableIS7_EEE5valueEvE4typeERS7_SH_
FNF:5
FNH:4
DA:189,16
DA:197,611
DA:198,85
DA:199,660
DA:200,22
LF:5
LH:5
end_of_record
TN:
SF:/usr/include/c++/13/bits/new_allocator.h
FN:126,152,_ZNSt15__new_allocatorIcE8allocateEmPKv
FN:156,173,_ZNSt15__new_allocatorIcE10deallocateEPcm
FNDA:541,_ZNSt15__new_allocatorIcE8allocateEmPKv
FNDA:481,_ZNSt15__new_allocatorIcE10deallocateEPcm
FNF:2
FNH:2
DA:126,541
DA:134,541
DA:140,0
DA:151,541
DA:156,481
DA:172,481
LF:6
LH:5
end_of_record
TN:
SF:/usr/include/c++/13/bits/random.h
FN:1658,1658,_ZNSt13random_deviceC2Ev
FNDA:1,_ZNSt13random_deviceC2Ev
FNF:1
FNH:1
DA:141,99
DA:143,100
DA:173,20
DA:174,20
DA:194,20
DA:303,1
DA:370,99
DA:1658,2
DA:1664,1
DA:1680,1
DA:1796,1
DA:1797,1
DA:1804,20
DA:1808,20
DA:1908,20
DA:1909,20
LF:16
LH:16
end_of_record
TN:
SF:/usr/include/c++/13/bits/random.tcc
FN:3349,3381,_ZSt18generate_canonicalIdLm53ESt26linear_congruential_engineImLm16807ELm0ELm2147483647EEET_RT1_
FNDA:20,_ZSt18generate_canonicalIdLm53ESt26linear_congruential_engineImLm16807ELm0ELm2147483647EEET_RT1_
FNF:1
FNH:1
DA:122,1
DA:123,0
DA:125,1
DA:3349,20
DA:3360,60
DA:3361,40
DA:3365,60
DA:3367,40
DA:3368,40
DA:3370,20
DA:3371,20
DA:3380,20
LF:12
LH:11
end_of_record
TN:
SF:/usr/include/c++/13/bits/std_function.h
FN:158,162,_ZNSt14_Function_base13_Base_managerIZNK4lasd20TraversableContainerINSt7__cxx1112basic_stringIcSt11char_traitsIcESaIcEEEE6ExistsERKS8_EUlSB_E_E9_M_createIRKSC_EEvRSt9_Any_dataOT_St17integral_constantIbLb0EE
FN:158,162,_ZNSt14_Function_base13_Base_managerIZNK4lasd20TraversableContainerINSt7__cxx1112basic_stringIcSt11char_traitsIcESaIcEEEE6ExistsERKS8_EUlSB_E_E9_M_createISC_EEvRSt9_Any_dataOT_St17integral_constantIbLb0EE
FN:158,162,_ZNSt14_Function_base13_Base_managerIZNK4lasd28PreOrderTraversableContainerINSt7__cxx1112basic_stringIcSt11char_traitsIcESaIcEEEE12PreOrderFoldIS8_EET_St8functionIFSB_RKS8_RKSB_EESB_EUlSE_E_E9_M_createIRKSJ_EEvRSt9_Any_dataOSB_St17integral_constantIbLb0EE
FN:158,162,_ZNSt14_Function_base13_Base_managerIZNK4lasd28PreOrderTraversableContainerINSt7__cxx1112basic_stringIcSt11char_traitsIcESaIcEEEE12PreOrderFoldIS8_EET_St8functionIFSB_RKS8_RKSB_EESB_EUlSE_E_E9_M_createISJ_EEvRSt9_Any_dataOSB_St17integral_constantIbLb0EE
FN:158,162,_ZNSt14_Function_base13_Base_managerIZNK4lasd28PreOrderTraversableContainerIdE12PreOrderFoldIdEET_St8functionIFS5_RKdRKS5_EES5_EUlS8_E_E9_M_createIRKSD_EEvRSt9_Any_dataOS5_St17integral_constantIbLb0EE
FN:158,162,_ZNSt14_Function_base13_Base_managerIZNK4lasd28PreOrderTraversableContainerIdE12PreOrderFoldIdEET_St8functionIFS5_RKdRKS5_EES5_EUlS8_E_E9_M_createISD_EEvRSt9_Any_dataOS5_St17integral_constantIbLb0EE
FN:158,162,_ZNSt14_Function_base13_Base_managerIZNK4lasd28PreOrderTraversableContainerIiE12PreOrderFoldIiEET_St8functionIFS5_RKiRKS5_EES5_EUlS8_E_E9_M_createIRKSD_EEvRSt9_Any_dataOS5_St17integral_constantIbLb0EE
FN:158,162,_ZNSt14_Function_base13_Base_managerIZNK4lasd28PreOrderTraversableContainerIiE12PreOrderFoldIiEET_St8functionIFS5_RKiRKS5_EES5_EUlS8_E_E9_M_createISD_EEvRSt9_Any_dataOS5_St17integral_constantIbLb0EE
FN:158,162,_ZNSt14_Function_base13_Base_managerIZNK4lasd29PostOrderTraversableContainerINSt7__cxx1112basic_stringIcSt11char_traitsIcESaIcEEEE13PostOrderFoldIS8_EET_St8functionIFSB_RKS8_RKSB_EESB_EUlSE_E_E9_M_createIRKSJ_EEvRSt9_Any_dataOSB_St17integral_constantIbLb0EE
FN:158,162,_ZNSt14_Function_base13_Base_managerIZNK4lasd29PostOrderTraversableContainerINSt7__cxx1112basic_stringIcSt11char_traitsIcESaIcEEEE13PostOrderFoldIS8_EET_St8functionIFSB_RKS8_RKSB_EESB_EUlSE_E_E9_M_createISJ_EEvRSt9_Any_dataOSB_St17integral_constantIbLb0EE
FN:158,162,_ZNSt14_Function_base13_Base_managerIZNK4lasd29PostOrderTraversableContainerIdE13PostOrderFoldIdEET_St8functionIFS5_RKdRKS5_EES5_EUlS8_E_E9_M_createIRKSD_EEvRSt9_Any_dataOS5_St17integral_constantIbLb0EE
FN:158,162,_ZNSt14_Function_base13_Base_managerIZNK4lasd29PostOrderTraversableContainerIdE13PostOrderFoldIdEET_St8functionIFS5_RKdRKS5_EES5_EUlS8_E_E9_M_createISD_EEvRSt9_Any_dataOS5_St17integral_constantIbLb0EE
FN:158,162,_ZNSt14_Function_base13_Base_managerIZNK4lasd29PostOrderTraversableContainerIiE13PostOrderFoldIiEET_St8functionIFS5_RKiRKS5_EES5_EUlS8_E_E9_M_createIRKSD_EEvRSt9_Any_dataOS5_St17integral_constantIbLb0EE
FN:158,162,_ZNSt14_Function_base13_Base_managerIZNK4lasd29PostOrderTraversableContainerIiE13PostOrderFoldIiEET_St8functionIFS5_RKiRKS5_EES5_EUlS8_E_E9_M_createISD_EEvRSt9_Any_dataOS5_St17integral_constantIbLb0EE
FN:173,176,_ZNSt14_Function_base13_Base_managerIZNK4lasd20TraversableContainerINSt7__cxx1112basic_stringIcSt11char_traitsIcESaIcEEEE6ExistsERKS8_EUlSB_E_E10_M_destroyERSt9_Any_dataSt17integral_constantIbLb0EE
FN:173,176,_ZNSt14_Function_base13_Base_managerIZNK4lasd28PreOrderTraversableContainerINSt7__cxx1112basic_stringIcSt11char_traitsIcESaIcEEEE12PreOrderFoldIS8_EET_St8functionIFSB_RKS8_RKSB_EESB_EUlSE_E_E10_M_destroyERSt9_Any_dataSt17integral_constantIbLb0EE
FN:173,176,_ZNSt14_Function_base13_Base_managerIZNK4lasd28PreOrderTraversableContainerIdE12PreOrderFoldIdEET_St8functionIFS5_RKdRKS5_EES5_EUlS8_E_E10_M_destroyERSt9_Any_dataSt17integral_constantIbLb0EE
FN:173,176,_ZNSt14_Function_base13_Base_managerIZNK4lasd28PreOrderTraversableContainerIiE12PreOrderFoldIiEET_St8functionIFS5_RKiRKS5_EES5_EUlS8_E_E10_M_destroyERSt9_Any_dataSt17integral_constantIbLb0EE
FN:173,176,_ZNSt14_Function_base13_Base_managerIZNK4lasd29PostOrderTraversableContainerINSt7__cxx1112basic_stringIcSt11char_traitsIcESaIcEEEE13PostOrderFoldIS8_EET_St8functionIFSB_RKS8_RKSB_EESB_EUlSE_E_E10_M_destroyERSt9_Any_dataSt17integral_constantIbLb0EE
FN:173,176,_ZNSt14_Function_base13_Base_managerIZNK4lasd29PostOrderTraversableContainerIdE13PostOrderFoldIdEET_St8functionIFS5_RKdRKS5_EES5_EUlS8_E_E10_M_destroyERSt9_Any_dataSt17integral_constantIbLb0EE
FN:173,176,_ZNSt14_Function_base13_Base_managerIZNK4lasd29PostOrderTraversableContainerIiE13PostOrderFoldIiEET_St8functionIFS5_RKiRKS5_EES5_EUlS8_E_E10_M_destroyERSt9_Any_dataSt17integral_constantIbLb0EE
FN:180,207,_ZNSt14_Function_base13_Base_managerIZNK4lasd20TraversableContainerINSt7__cxx1112basic_stringIcSt11char_traitsIcESaIcEEEE6ExistsERKS8_EUlSB_E_E10_M_managerERSt9_Any_dataRKSE_St18_Manager_operation
FN:180,207,_ZNSt14_Function_base13_Base_managerIZNK4lasd28PreOrderTraversableContainerINSt7__cxx1112basic_stringIcSt11char_traitsIcESaIcEEEE12PreOrderFoldIS8_EET_St8functionIFSB_RKS8_RKSB_EESB_EUlSE_E_E10_M_managerERSt9_Any_dataRKSL_St18_Manager_operation
FN:180,207,_ZNSt14_Function_base13_Base_managerIZNK4lasd28PreOrderTraversableContainerIdE12PreOrderFoldIdEET_St8functionIFS5_RKdRKS5_EES5_EUlS8_E_E10_M_managerERSt9_Any_dataRKSF_St18_Manager_operation
FN:180,207,_ZNSt14_Function_base13_Base_managerIZNK4lasd28PreOrderTraversableContainerIiE12PreOrderFoldIiEET_St8functionIFS5_RKiRKS5_EES5_EUlS8_E_E10_M_managerERSt9_Any_dataRKSF_St18_Manager_operation
FN:180,207,_ZNSt14_Function_base13_Base_managerIZNK4lasd29PostOrderTraversableContainerINSt7__cxx1112basic_stringIcSt11char_traitsIcESaIcEEEE13PostOrderFoldIS8_EET_St8functionIFSB_RKS8_RKSB_EESB_EUlSE_E_E10_M_managerERSt9_Any_dataRKSL_St18_Manager_operation
FN:180,207,_ZNSt14_Function_base13_Base_managerIZNK4lasd29PostOrderTraversableContainerIdE13PostOrderFoldIdEET_St8functionIFS5_RKdRKS5_EES5_EUlS8_E_E10_M_managerERSt9_Any_dataRKSF_St18_Manager_operation
FN:180,207,_ZNSt14_Function_base13_Base_managerIZNK4lasd29PostOrderTraversableContainerIiE13PostOrderFoldIiEET_St8functionIFS5_RKiRKS5_EES5_EUlS8_E_E10_M_managerERSt9_Any_dataRKSF_St18_Manager_operation
FN:267,285,_ZNSt17_Function_handlerIFNSt7__cxx1112basic_stringIcSt11char_traitsIcESaIcEEERKS5_S7_EPS8_E10_M_managerERSt9_Any_dataRKSB_St18_Manager_operation
FN:267,285,_ZNSt17_Function_handlerIFNSt7__cxx1112basic_stringIcSt11char_traitsIcESaIcEEERKS5_S7_EZ16testFunzioniListvEUlS7_S7_E0_E10_M_managerERSt9_Any_dataRKSB_St18_Manager_operation
FN:267,285,_ZNSt17_Function_handlerIFNSt7__cxx1112basic_stringIcSt11char_traitsIcESaIcEEERKS5_S7_EZ16testFunzioniListvEUlS7_S7_E_E10_M_managerERSt9_Any_dataRKSB_St18_Manager_operation
FN:267,285,_ZNSt17_Function_handlerIFNSt7__cxx1112basic_stringIcSt11char_traitsIcESaIcEEERKS5_S7_EZ18testFunzioniPQHeapvEUlS7_S7_E0_E10_M_managerERSt9_Any_dataRKSB_St18_Manager_operation
FN:267,285,_ZNSt17_Function_handlerIFNSt7__cxx1112basic_stringIcSt11char_traitsIcESaIcEEERKS5_S7_EZ18testFunzioniPQHeapvEUlS7_S7_E_E10_M_managerERSt9_Any_dataRKSB_St18_Manager_operation
FN:267,285,_ZNSt17_Function_handlerIFNSt7__cxx1112basic_stringIcSt11char_traitsIcESaIcEEERKS5_S7_EZ18testFunzioniSetLstvEUlS7_S7_E0_E10_M_managerERSt9_Any_dataRKSB_St18_Manager_operation
FN:267,285,_ZNSt17_Function_handlerIFNSt7__cxx1112basic_stringIcSt11char_traitsIcESaIcEEERKS5_S7_EZ18testFunzioniSetLstvEUlS7_S7_E_E10_M_managerERSt9_Any_dataRKSB_St18_Manager_operation
FN:267,285,_ZNSt17_Function_handlerIFNSt7__cxx1112basic_stringIcSt11char_traitsIcESaIcEEERKS5_S7_EZ18testFunzioniSetVecvEUlS7_S7_E0_E10_M_managerERSt9_Any_dataRKSB_St18_Manager_operation
FN:267,285,_ZNSt17_Function_handlerIFNSt7__cxx1112basic_stringIcSt11char_traitsIcESaIcEEERKS5_S7_EZ18testFunzioniSetVecvEUlS7_S7_E_E10_M_managerERSt9_Any_dataRKSB_St18_Manager_operation
FN:267,285,_ZNSt17_Function_handlerIFNSt7__cxx1112basic_stringIcSt11char_traitsIcESaIcEEERKS5_S7_EZ19testFunzioniHeapVecvEUlS7_S7_E0_E10_M_managerERSt9_Any_dataRKSB_St18_Manager_operation
FN:267,285,_ZNSt17_Function_handlerIFNSt7__cxx1112basic_stringIcSt11char_traitsIcESaIcEEERKS5_S7_EZ19testFunzioniHeapVecvEUlS7_S7_E_E10_M_managerERSt9_Any_dataRKSB_St18_Manager_operation
FN:267,285,_ZNSt17_Function_handlerIFNSt7__cxx1112basic_stringIcSt11char_traitsIcESaIcEEERKS5_S7_EZ27testUlterioriFunzioniVectorIZ6mytestvEUlvE_EbT_EUlS7_S7_E0_E10_M_managerERSt9_Any_dataRKSE_St18_Manager_operation
FN:267,285,_ZNSt17_Function_handlerIFNSt7__cxx1112basic_stringIcSt11char_traitsIcESaIcEEERKS5_S7_EZ27testUlterioriFunzioniVectorIZ6mytestvEUlvE_EbT_EUlS7_S7_E_E10_M_managerERSt9_Any_dataRKSE_St18_Manager_operation
FN:267,285,_ZNSt17_Function_handlerIFdRKdS1_EPS2_E10_M_managerERSt9_Any_dataRKS5_St18_Manager_operation
FN:267,285,_ZNSt17_Function_handlerIFiRKiS1_EPS2_E10_M_managerERSt9_Any_dataRKS5_St18_Manager_operation
FN:267,285,_ZNSt17_Function_handlerIFiRKiS1_EZ16testFunzioniListvEUlS1_S1_E0_E10_M_managerERSt9_Any_dataRKS5_St18_Manager_operation
FN:267,285,_ZNSt17_Function_handlerIFiRKiS1_EZ16testFunzioniListvEUlS1_S1_E_E10_M_managerERSt9_Any_dataRKS5_St18_Manager_operation
FN:267,285,_ZNSt17_Function_handlerIFiRKiS1_EZ18testFunzioniPQHeapvEUlS1_S1_E0_E10_M_managerERSt9_Any_dataRKS5_St18_Manager_operation
FN:267,285,_ZNSt17_Function_handlerIFiRKiS1_EZ18testFunzioniPQHeapvEUlS1_S1_E_E10_M_managerERSt9_Any_dataRKS5_St18_Manager_operation
FN:267,285,_ZNSt17_Function_handlerIFiRKiS1_EZ18testFunzioniSetVecvEUlS1_S1_E0_E10_M_managerERSt9_Any_dataRKS5_St18_Manager_operation
FN:267,285,_ZNSt17_Function_handlerIFiRKiS1_EZ18testFunzioniSetVecvEUlS1_S1_E_E10_M_managerERSt9_Any_dataRKS5_St18_Manager_operation
FN:267,285,_ZNSt17_Function_handlerIFiRKiS1_EZ19testFunzioniHeapVecvEUlS1_S1_E0_E10_M_managerERSt9_Any_dataRKS5_St18_Manager_operation
FN:267,285,_ZNSt17_Function_handlerIFiRKiS1_EZ19testFunzioniHeapVecvEUlS1_S1_E_E10_M_managerERSt9_Any_dataRKS5_St18_Manager_operation
FN:267,285,_ZNSt17_Function_handlerIFiRKiS1_EZ27testUlterioriFunzioniVectorIZ6mytestvEUlvE_EbT_EUlS1_S1_E0_E10_M_managerERSt9_Any_dataRKS8_St18_Manager_operation
FN:267,285,_ZNSt17_Function_handlerIFiRKiS1_EZ27testUlterioriFunzioniVectorIZ6mytestvEUlvE_EbT_EUlS1_S1_E_E10_M_managerERSt9_Any_dataRKS8_St18_Manager_operation
FN:267,285,_ZNSt17_Function_handlerIFvRKNSt7__cxx1112basic_stringIcSt11char_traitsIcESaIcEEEEPS8_E10_M_managerERSt9_Any_dataRKSB_St18_Manager_operation
FN:267,285,_ZNSt17_Function_handlerIFvRKNSt7__cxx1112basic_stringIcSt11char_traitsIcESaIcEEEEZ19testCostruttoriListvEUlS7_E0_E10_M_managerERSt9_Any_dataRKSB_St18_Manager_operation
FN:267,285,_ZNSt17_Function_handlerIFvRKNSt7__cxx1112basic_stringIcSt11char_traitsIcESaIcEEEEZ19testCostruttoriListvEUlS7_E1_E10_M_managerERSt9_Any_dataRKSB_St18_Manager_operation
FN:267,285,_ZNSt17_Function_handlerIFvRKNSt7__cxx1112basic_stringIcSt11char_traitsIcESaIcEEEEZ19testCostruttoriListvEUlS7_E_E10_M_managerERSt9_Any_dataRKSB_St18_Manager_operation
FN:267,285,_ZNSt17_Function_handlerIFvRKNSt7__cxx1112basic_stringIcSt11char_traitsIcESaIcEEEEZ21testCostruttoriPQHeapIZ6mytestvEUlvE_Z6mytestvEUlvE0_Z6mytestvEUlvE1_EbT_T0_T1_EUlS7_E0_E10_M_managerERSt9_Any_dataRKSI_St18_Manager_operation
FN:267,285,_ZNSt17_Function_handlerIFvRKNSt7__cxx1112basic_stringIcSt11char_traitsIcESaIcEEEEZ21testCostruttoriPQHeapIZ6mytestvEUlvE_Z6mytestvEUlvE0_Z6mytestvEUlvE1_EbT_T0_T1_EUlS7_E1_E10_M_managerERSt9_Any_dataRKSI_St18_Manager_operation
FN:267,285,_ZNSt17_Function_handlerIFvRKNSt7__cxx1112basic_stringIcSt11char_traitsIcESaIcEEEEZ21testCostruttoriPQHeapIZ6mytestvEUlvE_Z6mytestvEUlvE0_Z6mytestvEUlvE1_EbT_T0_T1_EUlS7_E2_E10_M_managerERSt9_Any_dataRKSI_St18_Manager_operation
FN:267,285,_ZNSt17_Function_handlerIFvRKNSt7__cxx1112basic_stringIcSt11char_traitsIcESaIcEEEEZ21testCostruttoriPQHeapIZ6mytestvEUlvE_Z6mytestvEUlvE0_Z6mytestvEUlvE1_EbT_T0_T1_EUlS7_E3_E10_M_managerERSt9_Any_dataRKSI_St18_Manager_operation
FN:267,285,_ZNSt17_Function_handlerIFvRKNSt7__cxx1112basic_stringIcSt11char_traitsIcESaIcEEEEZ21testCostruttoriPQHeapIZ6mytestvEUlvE_Z6mytestvEUlvE0_Z6mytestvEUlvE1_EbT_T0_T1_EUlS7_E_E10_M_managerERSt9_Any_dataRKSI_St18_Manager_operation
FN:267,285,_ZNSt17_Function_handlerIFvRKNSt7__cxx1112basic_stringIcSt11char_traitsIcESaIcEEEEZ21testCostruttoriSetLstIZ6mytestvEUlvE_Z6mytestvEUlvE0_Z6mytestvEUlvE1_EbT_T0_T1_EUlS7_E0_E10_M_managerERSt9_Any_dataRKSI_St18_Manager_operation
FN:267,285,_ZNSt17_Function_handlerIFvRKNSt7__cxx1112basic_stringIcSt11char_traitsIcESaIcEEEEZ21testCostruttoriSetLstIZ6mytestvEUlvE_Z6mytestvEUlvE0_Z6mytestvEUlvE1_EbT_T0_T1_EUlS7_E1_E10_M_managerERSt9_Any_dataRKSI_St18_Manager_operation
FN:267,285,_ZNSt17_Function_handlerIFvRKNSt7__cxx1112basic_stringIcSt11char_traitsIcESaIcEEEEZ21testCostruttoriSetLstIZ6mytestvEUlvE_Z6mytestvEUlvE0_Z6mytestvEUlvE1_EbT_T0_T1_EUlS7_E2_E10_M_managerERSt9_Any_dataRKSI_St18_Manager_operation
FN:267,285,_ZNSt17_Function_handlerIFvRKNSt7__cxx1112basic_stringIcSt11char_traitsIcESaIcEEEEZ21testCostruttoriSetLstIZ6mytestvEUlvE_Z6mytestvEUlvE0_Z6mytestvEUlvE1_EbT_T0_T1_EUlS7_E3_E10_M_managerERSt9_Any_dataRKSI_St18_Manager_operation
FN:267,285,_ZNSt17_Function_handlerIFvRKNSt7__cxx1112basic_stringIcSt11char_traitsIcESaIcEEEEZ21testCostruttoriSetLstIZ6mytestvEUlvE_Z6mytestvEUlvE0_Z6mytestvEUlvE1_EbT_T0_T1_EUlS7_E_E10_M_managerERSt9_Any_dataRKSI_St18_Manager_operation
FN:267,285,_ZNSt17_Function_handlerIFvRKNSt7__cxx1112basic_stringIcSt11char_traitsIcESaIcEEEEZ21testCostruttoriSetVecIZ6mytestvEUlvE_Z6mytestvEUlvE0_Z6mytestvEUlvE1_EbT_T0_T1_EUlS7_E0_E10_M_managerERSt9_Any_dataRKSI_St18_Manager_operation
FN:267,285,_ZNSt17_Function_handlerIFvRKNSt7__cxx1112basic_stringIcSt11char_traitsIcESaIcEEEEZ21testCostruttoriSetVecIZ6mytestvEUlvE_Z6mytestvEUlvE0_Z6mytestvEUlvE1_EbT_T0_T1_EUlS7_E1_E10_M_managerERSt9_Any_dataRKSI_St18_Manager_operation
FN:267,285,_ZNSt17_Function_handlerIFvRKNSt7__cxx1112basic_stringIcSt11char_traitsIcESaIcEEEEZ21testCostruttoriSetVecIZ6mytestvEUlvE_Z6mytestvEUlvE0_Z6mytestvEUlvE1_EbT_T0_T1_EUlS7_E2_E10_M_managerERSt9_Any_dataRKSI_St18_Manager_operation
FN:267,285,_ZNSt17_Function_handlerIFvRKNSt7__cxx1112basic_stringIcSt11char_traitsIcESaIcEEEEZ21testCostruttoriSetVecIZ6mytestvEUlvE_Z6mytestvEUlvE0_Z6mytestvEUlvE1_EbT_T0_T1_EUlS7_E3_E10_M_managerERSt9_Any_dataRKSI_St18_Manager_operation
FN:267,285,_ZNSt17_Function_handlerIFvRKNSt7__cxx1112basic_stringIcSt11char_traitsIcESaIcEEEEZ21testCostruttoriSetVecIZ6mytestvEUlvE_Z6mytestvEUlvE0_Z6mytestvEUlvE1_EbT_T0_T1_EUlS7_E_E10_M_managerERSt9_Any_dataRKSI_St18_Manager_operation
FN:267,285,_ZNSt17_Function_handlerIFvRKNSt7__cxx1112basic_stringIcSt11char_traitsIcESaIcEEEEZ21testCostruttoriVectorvEUlS7_E0_E10_M_managerERSt9_Any_dataRKSB_St18_Manager_operation
FN:267,285,_ZNSt17_Function_handlerIFvRKNSt7__cxx1112basic_stringIcSt11char_traitsIcESaIcEEEEZ21testCostruttoriVectorvEUlS7_E1_E10_M_managerERSt9_Any_dataRKSB_St18_Manager_operation
FN:267,285,_ZNSt17_Function_handlerIFvRKNSt7__cxx1112basic_stringIcSt11char_traitsIcESaIcEEEEZ21testCostruttoriVectorvEUlS7_E_E10_M_managerERSt9_Any_dataRKSB_St18_Manager_operation
FN:267,285,_ZNSt17_Function_handlerIFvRKNSt7__cxx1112basic_stringIcSt11char_traitsIcESaIcEEEEZ22testCostruttoriHeapVecIZ6mytestvEUlvE_Z6mytestvEUlvE0_Z6mytestvEUlvE1_EbT_T0_T1_EUlS7_E0_E10_M_managerERSt9_Any_dataRKSI_St18_Manager_operation
FN:267,285,_ZNSt17_Function_handlerIFvRKNSt7__cxx1112basic_stringIcSt11char_traitsIcESaIcEEEEZ22testCostruttoriHeapVecIZ6mytestvEUlvE_Z6mytestvEUlvE0_Z6mytestvEUlvE1_EbT_T0_T1_EUlS7_E1_E10_M_managerERSt9_Any_dataRKSI_St18_Manager_operation
FN:267,285,_ZNSt17_Function_handlerIFvRKNSt7__cxx1112basic_stringIcSt11char_traitsIcESaIcEEEEZ22testCostruttoriHeapVecIZ6mytestvEUlvE_Z6mytestvEUlvE0_Z6mytestvEUlvE1_EbT_T0_T1_EUlS7_E2_E10_M_managerERSt9_Any_dataRKSI_St18_Manager_operation
FN:267,285,_ZNSt17_Function_handlerIFvRKNSt7__cxx1112basic_stringIcSt11char_traitsIcESaIcEEEEZ22testCostruttoriHeapVecIZ6mytestvEUlvE_Z6mytestvEUlvE0_Z6mytestvEUlvE1_EbT_T0_T1_EUlS7_E3_E10_M_managerERSt9_Any_dataRKSI_St18_Manager_operation
FN:267,285,_ZNSt17_Function_handlerIFvRKNSt7__cxx1112basic_stringIcSt11char_traitsIcESaIcEEEEZ22testCostruttoriHeapVecIZ6mytestvEUlvE_Z6mytestvEUlvE0_Z6mytestvEUlvE1_EbT_T0_T1_EUlS7_E_E10_M_managerERSt9_Any_dataRKSI_St18_Manager_operation
FN:267,285,_ZNSt17_Function_handlerIFvRKNSt7__cxx1112basic_stringIcSt11char_traitsIcESaIcEEEEZN4lasd19DictionaryContainerIS5_E10InsertSomeERKNS9_20TraversableContainerIS5_EEEUlS7_E_E10_M_managerERSt9_Any_dataRKSI_St18_Manager_operation
FN:267,285,_ZNSt17_Function_handlerIFvRKNSt7__cxx1112basic_stringIcSt11char_traitsIcESaIcEEEEZN4lasd19DictionaryContainerIS5_E10RemoveSomeERKNS9_20TraversableContainerIS5_EEEUlS7_E_E10_M_managerERSt9_Any_dataRKSI_St18_Manager_operation
FN:267,285,_ZNSt17_Function_handlerIFvRKNSt7__cxx1112basic_stringIcSt11char_traitsIcESaIcEEEEZN4lasd19DictionaryContainerIS5_E9InsertAllERKNS9_20TraversableContainerIS5_EEEUlS7_E_E10_M_managerERSt9_Any_dataRKSI_St18_Manager_operation
FN:267,285,_ZNSt17_Function_handlerIFvRKNSt7__cxx1112basic_stringIcSt11char_traitsIcESaIcEEEEZN4lasd19DictionaryContainerIS5_E9RemoveAllERKNS9_20TraversableContainerIS5_EEEUlS7_E_E10_M_managerERSt9_Any_dataRKSI_St18_Manager_operation
FN:267,285,_ZNSt17_Function_handlerIFvRKNSt7__cxx1112basic_stringIcSt11char_traitsIcESaIcEEEEZN4lasd4ListIS5_EC4ERKNS9_20TraversableContainerIS5_EEEUlS7_E_E10_M_managerERSt9_Any_dataRKSI_St18_Manager_operation
FN:267,285,_ZNSt17_Function_handlerIFvRKNSt7__cxx1112basic_stringIcSt11char_traitsIcESaIcEEEEZN4lasd6SetLstIS5_EC4ERKNS9_20TraversableContainerIS5_EEEUlS7_E_E10_M_managerERSt9_Any_dataRKSI_St18_Manager_operation
FN:267,285,_ZNSt17_Function_handlerIFvRKNSt7__cxx1112basic_stringIcSt11char_traitsIcESaIcEEEEZN4lasd6SetVecIS5_EC4ERKNS9_20TraversableContainerIS5_EEEUlS7_E_E10_M_managerERSt9_Any_dataRKSI_St18_Manager_operation
FN:267,285,_ZNSt17_Function_handlerIFvRKNSt7__cxx1112basic_stringIcSt11char_traitsIcESaIcEEEEZN4lasd6VectorIS5_EC4ERKNS9_20TraversableContainerIS5_EEEUlS7_E_E10_M_managerERSt9_Any_dataRKSI_St18_Manager_operation
FN:267,285,_ZNSt17_Function_handlerIFvRKNSt7__cxx1112basic_stringIcSt11char_traitsIcESaIcEEEEZNK4lasd20TraversableContainerIS5_E6ExistsES7_EUlS7_E_E10_M_managerERSt9_Any_dataRKSE_St18_Manager_operation
FN:267,285,_ZNSt17_Function_handlerIFvRKNSt7__cxx1112basic_stringIcSt11char_traitsIcESaIcEEEEZNK4lasd28PreOrderTraversableContainerIS5_E12PreOrderFoldIS5_EET_St8functionIFSD_S7_RKSD_EESD_EUlS7_E_E10_M_managerERSt9_Any_dataRKSL_St18_Manager_operation
FN:267,285,_ZNSt17_Function_handlerIFvRKNSt7__cxx1112basic_stringIcSt11char_traitsIcESaIcEEEEZNK4lasd29PostOrderTraversableContainerIS5_E13PostOrderFoldIS5_EET_St8functionIFSD_S7_RKSD_EESD_EUlS7_E_E10_M_managerERSt9_Any_dataRKSL_St18_Manager_operation
FN:267,285,_ZNSt17_Function_handlerIFvRKdEPS2_E10_M_managerERSt9_Any_dataRKS5_St18_Manager_operation
FN:267,285,_ZNSt17_Function_handlerIFvRKdEZ19testCostruttoriListvEUlS1_E0_E10_M_managerERSt9_Any_dataRKS5_St18_Manager_operation
FN:267,285,_ZNSt17_Function_handlerIFvRKdEZ19testCostruttoriListvEUlS1_E1_E10_M_managerERSt9_Any_dataRKS5_St18_Manager_operation
FN:267,285,_ZNSt17_Function_handlerIFvRKdEZ19testCostruttoriListvEUlS1_E_E10_M_managerERSt9_Any_dataRKS5_St18_Manager_operation
FN:267,285,_ZNSt17_Function_handlerIFvRKdEZ21testCostruttoriPQHeapIZ6mytestvEUlvE_Z6mytestvEUlvE0_Z6mytestvEUlvE1_EbT_T0_T1_EUlS1_E0_E10_M_managerERSt9_Any_dataRKSC_St18_Manager_operation
FN:267,285,_ZNSt17_Function_handlerIFvRKdEZ21testCostruttoriPQHeapIZ6mytestvEUlvE_Z6mytestvEUlvE0_Z6mytestvEUlvE1_EbT_T0_T1_EUlS1_E1_E10_M_managerERSt9_Any_dataRKSC_St18_Manager_operation
FN:267,285,_ZNSt17_Function_handlerIFvRKdEZ21testCostruttoriPQHeapIZ6mytestvEUlvE_Z6mytestvEUlvE0_Z6mytestvEUlvE1_EbT_T0_T1_EUlS1_E2_E10_M_managerERSt9_Any_dataRKSC_St18_Manager_operation
FN:267,285,_ZNSt17_Function_handlerIFvRKdEZ21testCostruttoriPQHeapIZ6mytestvEUlvE_Z6mytestvEUlvE0_Z6mytestvEUlvE1_EbT_T0_T1_EUlS1_E3_E10_M_managerERSt9_Any_dataRKSC_St18_Manager_operation
FN:267,285,_ZNSt17_Function_handlerIFvRKdEZ21testCostruttoriPQHeapIZ6mytestvEUlvE_Z6mytestvEUlvE0_Z6mytestvEUlvE1_EbT_T0_T1_EUlS1_E_E10_M_managerERSt9_Any_dataRKSC_St18_Manager_operation
FN:267,285,_ZNSt17_Function_handlerIFvRKdEZ21testCostruttoriSetLstIZ6mytestvEUlvE_Z6mytestvEUlvE0_Z6mytestvEUlvE1_EbT_T0_T1_EUlS1_E0_E10_M_managerERSt9_Any_dataRKSC_St18_Manager_operation
FN:267,285,_ZNSt17_Function_handlerIFvRKdEZ21testCostruttoriSetLstIZ6mytestvEUlvE_Z6mytestvEUlvE0_Z6mytestvEUlvE1_EbT_T0_T1_EUlS1_E1_E10_M_managerERSt9_Any_dataRKSC_St18_Manager_operation
FN:267,285,_ZNSt17_Function_handlerIFvRKdEZ21testCostruttoriSetLstIZ6mytestvEUlvE_Z6mytestvEUlvE0_Z6mytestvEUlvE1_EbT_T0_T1_EUlS1_E2_E10_M_managerERSt9_Any_dataRKSC_St18_Manager_operation
FN:267,285,_ZNSt17_Function_handlerIFvRKdEZ21testCostruttoriSetLstIZ6mytestvEUlvE_Z6mytestvEUlvE0_Z6mytestvEUlvE1_EbT_T0_T1_EUlS1_E3_E10_M_managerERSt9_Any_dataRKSC_St18_Manager_operation
FN:267,285,_ZNSt17_Function_handlerIFvRKdEZ21testCostruttoriSetLstIZ6mytestvEUlvE_Z6mytestvEUlvE0_Z6mytestvEUlvE1_EbT_T0_T1_EUlS1_E_E10_M_managerERSt9_Any_dataRKSC_St18_Manager_operation
FN:267,285,_ZNSt17_Function_handlerIFvRKdEZ21testCostruttoriSetVecIZ6mytestvEUlvE_Z6mytestvEUlvE0_Z6mytestvEUlvE1_EbT_T0_T1_EUlS1_E0_E10_M_managerERSt9_Any_dataRKSC_St18_Manager_operation
FN:267,285,_ZNSt17_Function_handlerIFvRKdEZ21testCostruttoriSetVecIZ6mytestvEUlvE_Z6mytestvEUlvE0_Z6mytestvEUlvE1_EbT_T0_T1_EUlS1_E1_E10_M_managerERSt9_Any_dataRKSC_St18_Manager_operation
FN:267,285,_ZNSt17_Function_handlerIFvRKdEZ21testCostruttoriSetVecIZ6mytestvEUlvE_Z6mytestvEUlvE0_Z6mytestvEUlvE1_EbT_T0_T1_EUlS1_E2_E10_M_managerERSt9_Any_dataRKSC_St18_Manager_operation
FN:267,285,_ZNSt17_Function_handlerIFvRKdEZ21testCostruttoriSetVecIZ6mytestvEUlvE_Z6mytestvEUlvE0_Z6mytestvEUlvE1_EbT_T0_T1_EUlS1_E3_E10_M_managerERSt9_Any_dataRKSC_St18_Manager_operation
FN:267,285,_ZNSt17_Function_handlerIFvRKdEZ21testCostruttoriSetVecIZ6mytestvEUlvE_Z6mytestvEUlvE0_Z6mytestvEUlvE1_EbT_T0_T1_EUlS1_E_E10_M_managerERSt9_Any_dataRKSC_St18_Manager_operation
FN:267,285,_ZNSt17_Function_handlerIFvRKdEZ21testCostruttoriVectorvEUlS1_E0_E10_M_managerERSt9_Any_dataRKS5_St18_Manager_operation
FN:267,285,_ZNSt17_Function_handlerIFvRKdEZ21testCostruttoriVectorvEUlS1_E1_E10_M_managerERSt9_Any_dataRKS5_St18_Manager_operation
FN:267,285,_ZNSt17_Function_handlerIFvRKdEZ21testCostruttoriVectorvEUlS1_E_E10_M_managerERSt9_Any_dataRKS5_St18_Manager_operation
FN:267,285,_ZNSt17_Function_handlerIFvRKdEZ22testCostruttoriHeapVecIZ6mytestvEUlvE_Z6mytestvEUlvE0_Z6mytestvEUlvE1_EbT_T0_T1_EUlS1_E0_E10_M_managerERSt9_Any_dataRKSC_St18_Manager_operation
FN:267,285,_ZNSt17_Function_handlerIFvRKdEZ22testCostruttoriHeapVecIZ6mytestvEUlvE_Z6mytestvEUlvE0_Z6mytestvEUlvE1_EbT_T0_T1_EUlS1_E1_E10_M_managerERSt9_Any_dataRKSC_St18_Manager_operation
FN:267,285,_ZNSt17_Function_handlerIFvRKdEZ22testCostruttoriHeapVecIZ6mytestvEUlvE_Z6mytestvEUlvE0_Z6mytestvEUlvE1_EbT_T0_T1_EUlS1_E2_E10_M_managerERSt9_Any_dataRKSC_St18_Manager_operation
FN:267,285,_ZNSt17_Function_handlerIFvRKdEZ22testCostruttoriHeapVecIZ6mytestvEUlvE_Z6mytestvEUlvE0_Z6mytestvEUlvE1_EbT_T0_T1_EUlS1_E3_E10_M_managerERSt9_Any_dataRKSC_St18_Manager_operation
FN:267,285,_ZNSt17_Function_handlerIFvRKdEZ22testCostruttoriHeapVecIZ6mytestvEUlvE_Z6mytestvEUlvE0_Z6mytestvEUlvE1_EbT_T0_T1_EUlS1_E_E10_M_managerERSt9_Any_dataRKSC_St18_Manager_operation
FN:267,285,_ZNSt17_Function_handlerIFvRKdEZN4lasd19DictionaryContainerIdE10InsertSomeERKNS3_20TraversableContainerIdEEEUlS1_E_E10_M_managerERSt9_Any_dataRKSC_St18_Manager_operation
FN:267,285,_ZNSt17_Function_handlerIFvRKdEZN4lasd19DictionaryContainerIdE10RemoveSomeERKNS3_20TraversableContainerIdEEEUlS1_E_E10_M_managerERSt9_Any_dataRKSC_St18_Manager_operation
FN:267,285,_ZNSt17_Function_handlerIFvRKdEZN4lasd19DictionaryContainerIdE9InsertAllERKNS3_20TraversableContainerIdEEEUlS1_E_E10_M_managerERSt9_Any_dataRKSC_St18_Manager_operation
FN:267,285,_ZNSt17_Function_handlerIFvRKdEZN4lasd19DictionaryContainerIdE9RemoveAllERKNS3_20TraversableContainerIdEEEUlS1_E_E10_M_managerERSt9_Any_dataRKSC_St18_Manager_operation
FN:267,285,_ZNSt17_Function_handlerIFvRKdEZN4lasd4ListIdEC4ERKNS3_20TraversableContainerIdEEEUlS1_E_E10_M_managerERSt9_Any_dataRKSC_St18_Manager_operation
FN:267,285,_ZNSt17_Function_handlerIFvRKdEZN4lasd6SetLstIdEC4ERKNS3_20TraversableContainerIdEEEUlS1_E_E10_M_managerERSt9_Any_dataRKSC_St18_Manager_operation
FN:267,285,_ZNSt17_Function_handlerIFvRKdEZN4lasd6SetVecIdEC4ERKNS3_20TraversableContainerIdEEEUlS1_E_E10_M_managerERSt9_Any_dataRKSC_St18_Manager_operation
FN:267,285,_ZNSt17_Function_handlerIFvRKdEZN4lasd6VectorIdEC4ERKNS3_20TraversableContainerIdEEEUlS1_E_E10_M_managerERSt9_Any_dataRKSC_St18_Manager_operation
FN:267,285,_ZNSt17_Function_handlerIFvRKdEZNK4lasd20TraversableContainerIdE6ExistsES1_EUlS1_E_E10_M_managerERSt9_Any_dataRKS8_St18_Manager_operation
FN:267,285,_ZNSt17_Function_handlerIFvRKdEZNK4lasd28PreOrderTraversableContainerIdE12PreOrderFoldIdEET_St8functionIFS7_S1_RKS7_EES7_EUlS1_E_E10_M_managerERSt9_Any_dataRKSF_St18_Manager_operation
FN:267,285,_ZNSt17_Function_handlerIFvRKdEZNK4lasd29PostOrderTraversableContainerIdE13PostOrderFoldIdEET_St8functionIFS7_S1_RKS7_EES7_EUlS1_E_E10_M_managerERSt9_Any_dataRKSF_St18_Manager_operation
FN:267,285,_ZNSt17_Function_handlerIFvRKiEPS2_E10_M_managerERSt9_Any_dataRKS5_St18_Manager_operation
FN:267,285,_ZNSt17_Function_handlerIFvRKiEZ16testFunzioniListvEUlS1_E0_E10_M_managerERSt9_Any_dataRKS5_St18_Manager_operation
FN:267,285,_ZNSt17_Function_handlerIFvRKiEZ16testFunzioniListvEUlS1_E10_E10_M_managerERSt9_Any_dataRKS5_St18_Manager_operation
FN:267,285,_ZNSt17_Function_handlerIFvRKiEZ16testFunzioniListvEUlS1_E11_E10_M_managerERSt9_Any_dataRKS5_St18_Manager_operation
FN:267,285,_ZNSt17_Function_handlerIFvRKiEZ16testFunzioniListvEUlS1_E1_E10_M_managerERSt9_Any_dataRKS5_St18_Manager_operation
FN:267,285,_ZNSt17_Function_handlerIFvRKiEZ16testFunzioniListvEUlS1_E2_E10_M_managerERSt9_Any_dataRKS5_St18_Manager_operation
FN:267,285,_ZNSt17_Function_handlerIFvRKiEZ16testFunzioniListvEUlS1_E3_E10_M_managerERSt9_Any_dataRKS5_St18_Manager_operation
FN:267,285,_ZNSt17_Function_handlerIFvRKiEZ16testFunzioniListvEUlS1_E4_E10_M_managerERSt9_Any_dataRKS5_St18_Manager_operation
FN:267,285,_ZNSt17_Function_handlerIFvRKiEZ16testFunzioniListvEUlS1_E5_E10_M_managerERSt9_Any_dataRKS5_St18_Manager_operation
FN:267,285,_ZNSt17_Function_handlerIFvRKiEZ16testFunzioniListvEUlS1_E6_E10_M_managerERSt9_Any_dataRKS5_St18_Manager_operation
FN:267,285,_ZNSt17_Function_handlerIFvRKiEZ16testFunzioniListvEUlS1_E7_E10_M_managerERSt9_Any_dataRKS5_St18_Manager_operation
FN:267,285,_ZNSt17_Function_handlerIFvRKiEZ16testFunzioniListvEUlS1_E8_E10_M_managerERSt9_Any_dataRKS5_St18_Manager_operation
FN:267,285,_ZNSt17_Function_handlerIFvRKiEZ16testFunzioniListvEUlS1_E9_E10_M_managerERSt9_Any_dataRKS5_St18_Manager_operation
FN:267,285,_ZNSt17_Function_handlerIFvRKiEZ16testFunzioniListvEUlS1_E_E10_M_managerERSt9_Any_dataRKS5_St18_Manager_operation
FN:267,285,_ZNSt17_Function_handlerIFvRKiEZ18testFunzioniPQHeapvEUlS1_E0_E10_M_managerERSt9_Any_dataRKS5_St18_Manager_operation
FN:267,285,_ZNSt17_Function_handlerIFvRKiEZ18testFunzioniPQHeapvEUlS1_E1_E10_M_managerERSt9_Any_dataRKS5_St18_Manager_operation
FN:267,285,_ZNSt17_Function_handlerIFvRKiEZ18testFunzioniPQHeapvEUlS1_E2_E10_M_managerERSt9_Any_dataRKS5_St18_Manager_operation
FN:267,285,_ZNSt17_Function_handlerIFvRKiEZ18testFunzioniPQHeapvEUlS1_E3_E10_M_managerERSt9_Any_dataRKS5_St18_Manager_operation
FN:267,285,_ZNSt17_Function_handlerIFvRKiEZ18testFunzioniPQHeapvEUlS1_E_E10_M_managerERSt9_Any_dataRKS5_St18_Manager_operation
FN:267,285,_ZNSt17_Function_handlerIFvRKiEZ18testFunzioniSetLstvEUlS1_E0_E10_M_managerERSt9_Any_dataRKS5_St18_Manager_operation
FN:267,285,_ZNSt17_Function_handlerIFvRKiEZ18testFunzioniSetLstvEUlS1_E10_E10_M_managerERSt9_Any_dataRKS5_St18_Manager_operation
FN:267,285,_ZNSt17_Function_handlerIFvRKiEZ18testFunzioniSetLstvEUlS1_E11_E10_M_managerERSt9_Any_dataRKS5_St18_Manager_operation
FN:267,285,_ZNSt17_Function_handlerIFvRKiEZ18testFunzioniSetLstvEUlS1_E12_E10_M_managerERSt9_Any_dataRKS5_St18_Manager_operation
FN:267,285,_ZNSt17_Function_handlerIFvRKiEZ18testFunzioniSetLstvEUlS1_E13_E10_M_managerERSt9_Any_dataRKS5_St18_Manager_operation
FN:267,285,_ZNSt17_Function_handlerIFvRKiEZ18testFunzioniSetLstvEUlS1_E14_E10_M_managerERSt9_Any_dataRKS5_St18_Manager_operation
FN:267,285,_ZNSt17_Function_handlerIFvRKiEZ18testFunzioniSetLstvEUlS1_E15_E10_M_managerERSt9_Any_dataRKS5_St18_Manager_operation
FN:267,285,_ZNSt17_Function_handlerIFvRKiEZ18testFunzioniSetLstvEUlS1_E16_E10_M_managerERSt9_Any_dataRKS5_St18_Manager_operation
FN:267,285,_ZNSt17_Function_handlerIFvRKiEZ18testFunzioniSetLstvEUlS1_E17_E10_M_managerERSt9_Any_dataRKS5_St18_Manager_operation
FN:267,285,_ZNSt17_Function_handlerIFvRKiEZ18testFunzioniSetLstvEUlS1_E18_E10_M_managerERSt9_Any_dataRKS5_St18_Manager_operation
FN:267,285,_ZNSt17_Function_handlerIFvRKiEZ18testFunzioniSetLstvEUlS1_E19_E10_M_managerERSt9_Any_dataRKS5_St18_Manager_operation
FN:267,285,_ZNSt17_Function_handlerIFvRKiEZ18testFunzioniSetLstvEUlS1_E1_E10_M_managerERSt9_Any_dataRKS5_St18_Manager_operation
FN:267,285,_ZNSt17_Function_handlerIFvRKiEZ18testFunzioniSetLstvEUlS1_E20_E10_M_managerERSt9_Any_dataRKS5_St18_Manager_operation
FN:267,285,_ZNSt17_Function_handlerIFvRKiEZ18testFunzioniSetLstvEUlS1_E2_E10_M_managerERSt9_Any_dataRKS5_St18_Manager_operation
FN:267,285,_ZNSt17_Function_handlerIFvRKiEZ18testFunzioniSetLstvEUlS1_E3_E10_M_managerERSt9_Any_dataRKS5_St18_Manager_operation
FN:267,285,_ZNSt17_Function_handlerIFvRKiEZ18testFunzioniSetLstvEUlS1_E4_E10_M_managerERSt9_Any_dataRKS5_St18_Manager_operation
FN:267,285,_ZNSt17_Function_handlerIFvRKiEZ18testFunzioniSetLstvEUlS1_E5_E10_M_managerERSt9_Any_dataRKS5_St18_Manager_operation
FN:267,285,_ZNSt17_Function_handlerIFvRKiEZ18testFunzioniSetLstvEUlS1_E6_E10_M_managerERSt9_Any_dataRKS5_St18_Manager_operation
FN:267,285,_ZNSt17_Function_handlerIFvRKiEZ18testFunzioniSetLstvEUlS1_E7_E10_M_managerERSt9_Any_dataRKS5_St18_Manager_operation
FN:267,285,_ZNSt17_Function_handlerIFvRKiEZ18testFunzioniSetLstvEUlS1_E8_E10_M_managerERSt9_Any_dataRKS5_St18_Manager_operation
FN:267,285,_ZNSt17_Function_handlerIFvRKiEZ18testFunzioniSetLstvEUlS1_E9_E10_M_managerERSt9_Any_dataRKS5_St18_Manager_operation
FN:267,285,_ZNSt17_Function_handlerIFvRKiEZ18testFunzioniSetLstvEUlS1_E_E10_M_managerERSt9_Any_dataRKS5_St18_Manager_operation
FN:267,285,_ZNSt17_Function_handlerIFvRKiEZ18testFunzioniSetVecvEUlS1_E0_E10_M_managerERSt9_Any_dataRKS5_St18_Manager_operation
FN:267,285,_ZNSt17_Function_handlerIFvRKiEZ18testFunzioniSetVecvEUlS1_E10_E10_M_managerERSt9_Any_dataRKS5_St18_Manager_operation
FN:267,285,_ZNSt17_Function_handlerIFvRKiEZ18testFunzioniSetVecvEUlS1_E11_E10_M_managerERSt9_Any_dataRKS5_St18_Manager_operation
FN:267,285,_ZNSt17_Function_handlerIFvRKiEZ18testFunzioniSetVecvEUlS1_E12_E10_M_managerERSt9_Any_dataRKS5_St18_Manager_operation
FN:267,285,_ZNSt17_Function_handlerIFvRKiEZ18testFunzioniSetVecvEUlS1_E13_E10_M_managerERSt9_Any_dataRKS5_St18_Manager_operation
FN:267,285,_ZNSt17_Function_handlerIFvRKiEZ18testFunzioniSetVecvEUlS1_E14_E10_M_managerERSt9_Any_dataRKS5_St18_Manager_operation
FN:267,285,_ZNSt17_Function_handlerIFvRKiEZ18testFunzioniSetVecvEUlS1_E1_E10_M_managerERSt9_Any_dataRKS5_St18_Manager_operation
FN:267,285,_ZNSt17_Function_handlerIFvRKiEZ18testFunzioniSetVecvEUlS1_E2_E10_M_managerERSt9_Any_dataRKS5_St18_Manager_operation
FN:267,285,_ZNSt17_Function_handlerIFvRKiEZ18testFunzioniSetVecvEUlS1_E3_E10_M_managerERSt9_Any_dataRKS5_St18_Manager_operation
FN:267,285,_ZNSt17_Function_handlerIFvRKiEZ18testFunzioniSetVecvEUlS1_E4_E10_M_managerERSt9_Any_dataRKS5_St18_Manager_operation
FN:267,285,_ZNSt17_Function_handlerIFvRKiEZ18testFunzioniSetVecvEUlS1_E5_E10_M_managerERSt9_Any_dataRKS5_St18_Manager_operation
FN:267,285,_ZNSt17_Function_handlerIFvRKiEZ18testFunzioniSetVecvEUlS1_E6_E10_M_managerERSt9_Any_dataRKS5_St18_Manager_operation
FN:267,285,_ZNSt17_Function_handlerIFvRKiEZ18testFunzioniSetVecvEUlS1_E7_E10_M_managerERSt9_Any_dataRKS5_St18_Manager_operation
FN:267,285,_ZNSt17_Function_handlerIFvRKiEZ18testFunzioniSetVecvEUlS1_E8_E10_M_managerERSt9_Any_dataRKS5_St18_Manager_operation
FN:267,285,_ZNSt17_Function_handlerIFvRKiEZ18testFunzioniSetVecvEUlS1_E9_E10_M_managerERSt9_Any_dataRKS5_St18_Manager_operation
FN:267,285,_ZNSt17_Function_handlerIFvRKiEZ18testFunzioniSetVecvEUlS1_E_E10_M_managerERSt9_Any_dataRKS5_St18_Manager_operation
FN:267,285,_ZNSt17_Function_handlerIFvRKiEZ18testFunzioniVectorvEUlS1_E0_E10_M_managerERSt9_Any_dataRKS5_St18_Manager_operation
FN:267,285,_ZNSt17_Function_handlerIFvRKiEZ18testFunzioniVectorvEUlS1_E1_E10_M_managerERSt9_Any_dataRKS5_St18_Manager_operation
FN:267,285,_ZNSt17_Function_handlerIFvRKiEZ18testFunzioniVectorvEUlS1_E2_E10_M_managerERSt9_Any_dataRKS5_St18_Manager_operation
FN:267,285,_ZNSt17_Function_handlerIFvRKiEZ18testFunzioniVectorvEUlS1_E_E10_M_managerERSt9_Any_dataRKS5_St18_Manager_operation
FN:267,285,_ZNSt17_Function_handlerIFvRKiEZ19testCostruttoriListvEUlS1_E0_E10_M_managerERSt9_Any_dataRKS5_St18_Manager_operation
FN:267,285,_ZNSt17_Function_handlerIFvRKiEZ19testCostruttoriListvEUlS1_E1_E10_M_managerERSt9_Any_dataRKS5_St18_Manager_operation
FN:267,285,_ZNSt17_Function_handlerIFvRKiEZ19testCostruttoriListvEUlS1_E_E10_M_managerERSt9_Any_dataRKS5_St18_Manager_operation
FN:267,285,_ZNSt17_Function_handlerIFvRKiEZ19testFunzioniHeapVecvEUlS1_E0_E10_M_managerERSt9_Any_dataRKS5_St18_Manager_operation
FN:267,285,_ZNSt17_Function_handlerIFvRKiEZ19testFunzioniHeapVecvEUlS1_E1_E10_M_managerERSt9_Any_dataRKS5_St18_Manager_operation
FN:267,285,_ZNSt17_Function_handlerIFvRKiEZ19testFunzioniHeapVecvEUlS1_E2_E10_M_managerERSt9_Any_dataRKS5_St18_Manager_operation
FN:267,285,_ZNSt17_Function_handlerIFvRKiEZ19testFunzioniHeapVecvEUlS1_E3_E10_M_managerERSt9_Any_dataRKS5_St18_Manager_operation
FN:267,285,_ZNSt17_Function_handlerIFvRKiEZ19testFunzioniHeapVecvEUlS1_E4_E10_M_managerERSt9_Any_dataRKS5_St18_Manager_operation
FN:267,285,_ZNSt17_Function_handlerIFvRKiEZ19testFunzioniHeapVecvEUlS1_E_E10_M_managerERSt9_Any_dataRKS5_St18_Manager_operation
FN:267,285,_ZNSt17_Function_handlerIFvRKiEZ20testCasiLimitePQHeapvEUlS1_E0_E10_M_managerERSt9_Any_dataRKS5_St18_Manager_operation
FN:267,285,_ZNSt17_Function_handlerIFvRKiEZ20testCasiLimitePQHeapvEUlS1_E_E10_M_managerERSt9_Any_dataRKS5_St18_Manager_operation
FN:267,285,_ZNSt17_Function_handlerIFvRKiEZ20testCasiLimiteSetLstvEUlS1_E0_E10_M_managerERSt9_Any_dataRKS5_St18_Manager_operation
FN:267,285,_ZNSt17_Function_handlerIFvRKiEZ20testCasiLimiteSetLstvEUlS1_E1_E10_M_managerERSt9_Any_dataRKS5_St18_Manager_operation
FN:267,285,_ZNSt17_Function_handlerIFvRKiEZ20testCasiLimiteSetLstvEUlS1_E2_E10_M_managerERSt9_Any_dataRKS5_St18_Manager_operation
FN:267,285,_ZNSt17_Function_handlerIFvRKiEZ20testCasiLimiteSetLstvEUlS1_E3_E10_M_managerERSt9_Any_dataRKS5_St18_Manager_operation
FN:267,285,_ZNSt17_Function_handlerIFvRKiEZ20testCasiLimiteSetLstvEUlS1_E4_E10_M_managerERSt9_Any_dataRKS5_St18_Manager_operation
FN:267,285,_ZNSt17_Function_handlerIFvRKiEZ20testCasiLimiteSetLstvEUlS1_E5_E10_M_managerERSt9_Any_dataRKS5_St18_Manager_operation
FN:267,285,_ZNSt17_Function_handlerIFvRKiEZ20testCasiLimiteSetLstvEUlS1_E6_E10_M_managerERSt9_Any_dataRKS5_St18_Manager_operation
FN:267,285,_ZNSt17_Function_handlerIFvRKiEZ20testCasiLimiteSetLstvEUlS1_E7_E10_M_managerERSt9_Any_dataRKS5_St18_Manager_operation
FN:267,285,_ZNSt17_Function_handlerIFvRKiEZ20testCasiLimiteSetLstvEUlS1_E8_E10_M_managerERSt9_Any_dataRKS5_St18_Manager_operation
FN:267,285,_ZNSt17_Function_handlerIFvRKiEZ20testCasiLimiteSetLstvEUlS1_E_E10_M_managerERSt9_Any_dataRKS5_St18_Manager_operation
FN:267,285,_ZNSt17_Function_handlerIFvRKiEZ20testCasiLimiteSetVecvEUlS1_E0_E10_M_managerERSt9_Any_dataRKS5_St18_Manager_operation
FN:267,285,_ZNSt17_Function_handlerIFvRKiEZ20testCasiLimiteSetVecvEUlS1_E10_E10_M_managerERSt9_Any_dataRKS5_St18_Manager_operation
FN:267,285,_ZNSt17_Function_handlerIFvRKiEZ20testCasiLimiteSetVecvEUlS1_E11_E10_M_managerERSt9_Any_dataRKS5_St18_Manager_operation
FN:267,285,_ZNSt17_Function_handlerIFvRKiEZ20testCasiLimiteSetVecvEUlS1_E12_E10_M_managerERSt9_Any_dataRKS5_St18_Manager_operation
FN:267,285,_ZNSt17_Function_handlerIFvRKiEZ20testCasiLimiteSetVecvEUlS1_E1_E10_M_managerERSt9_Any_dataRKS5_St18_Manager_operation
FN:267,285,_ZNSt17_Function_handlerIFvRKiEZ20testCasiLimiteSetVecvEUlS1_E2_E10_M_managerERSt9_Any_dataRKS5_St18_Manager_operation
FN:267,285,_ZNSt17_Function_handlerIFvRKiEZ20testCasiLimiteSetVecvEUlS1_E3_E10_M_managerERSt9_Any_dataRKS5_St18_Manager_operation
FN:267,285,_ZNSt17_Function_handlerIFvRKiEZ20testCasiLimiteSetVecvEUlS1_E4_E10_M_managerERSt9_Any_dataRKS5_St18_Manager_operation
FN:267,285,_ZNSt17_Function_handlerIFvRKiEZ20testCasiLimiteSetVecvEUlS1_E5_E10_M_managerERSt9_Any_dataRKS5_St18_Manager_operation
FN:267,285,_ZNSt17_Function_handlerIFvRKiEZ20testCasiLimiteSetVecvEUlS1_E6_E10_M_managerERSt9_Any_dataRKS5_St18_Manager_operation
FN:267,285,_ZNSt17_Function_handlerIFvRKiEZ20testCasiLimiteSetVecvEUlS1_E7_E10_M_managerERSt9_Any_dataRKS5_St18_Manager_operation
FN:267,285,_ZNSt17_Function_handlerIFvRKiEZ20testCasiLimiteSetVecvEUlS1_E8_E10_M_managerERSt9_Any_dataRKS5_St18_Manager_operation
FN:267,285,_ZNSt17_Function_handlerIFvRKiEZ20testCasiLimiteSetVecvEUlS1_E9_E10_M_managerERSt9_Any_dataRKS5_St18_Manager_operation
FN:267,285,_ZNSt17_Function_handlerIFvRKiEZ20testCasiLimiteSetVecvEUlS1_E_E10_M_managerERSt9_Any_dataRKS5_St18_Manager_operation
FN:267,285,_ZNSt17_Function_handlerIFvRKiEZ21testCostruttoriPQHeapIZ6mytestvEUlvE_Z6mytestvEUlvE0_Z6mytestvEUlvE1_EbT_T0_T1_EUlS1_E0_E10_M_managerERSt9_Any_dataRKSC_St18_Manager_operation
FN:267,285,_ZNSt17_Function_handlerIFvRKiEZ21testCostruttoriPQHeapIZ6mytestvEUlvE_Z6mytestvEUlvE0_Z6mytestvEUlvE1_EbT_T0_T1_EUlS1_E1_E10_M_managerERSt9_Any_dataRKSC_St18_Manager_operation
FN:267,285,_ZNSt17_Function_handlerIFvRKiEZ21testCostruttoriPQHeapIZ6mytestvEUlvE_Z6mytestvEUlvE0_Z6mytestvEUlvE1_EbT_T0_T1_EUlS1_E2_E10_M_managerERSt9_Any_dataRKSC_St18_Manager_operation
FN:267,285,_ZNSt17_Function_handlerIFvRKiEZ21testCostruttoriPQHeapIZ6mytestvEUlvE_Z6mytestvEUlvE0_Z6mytestvEUlvE1_EbT_T0_T1_EUlS1_E3_E10_M_managerERSt9_Any_dataRKSC_St18_Manager_operation
FN:267,285,_ZNSt17_Function_handlerIFvRKiEZ21testCostruttoriPQHeapIZ6mytestvEUlvE_Z6mytestvEUlvE0_Z6mytestvEUlvE1_EbT_T0_T1_EUlS1_E_E10_M_managerERSt9_Any_dataRKSC_St18_Manager_operation
FN:267,285,_ZNSt17_Function_handlerIFvRKiEZ21testCostruttoriSetLstIZ6mytestvEUlvE_Z6mytestvEUlvE0_Z6mytestvEUlvE1_EbT_T0_T1_EUlS1_E0_E10_M_managerERSt9_Any_dataRKSC_St18_Manager_operation
FN:267,285,_ZNSt17_Function_handlerIFvRKiEZ21testCostruttoriSetLstIZ6mytestvEUlvE_Z6mytestvEUlvE0_Z6mytestvEUlvE1_EbT_T0_T1_EUlS1_E1_E10_M_managerERSt9_Any_dataRKSC_St18_Manager_operation
FN:267,285,_ZNSt17_Function_handlerIFvRKiEZ21testCostruttoriSetLstIZ6mytestvEUlvE_Z6mytestvEUlvE0_Z6mytestvEUlvE1_EbT_T0_T1_EUlS1_E2_E10_M_managerERSt9_Any_dataRKSC_St18_Manager_operation
FN:267,285,_ZNSt17_Function_handlerIFvRKiEZ21testCostruttoriSetLstIZ6mytestvEUlvE_Z6mytestvEUlvE0_Z6mytestvEUlvE1_EbT_T0_T1_EUlS1_E3_E10_M_managerERSt9_Any_dataRKSC_St18_Manager_operation
FN:267,285,_ZNSt17_Function_handlerIFvRKiEZ21testCostruttoriSetLstIZ6mytestvEUlvE_Z6mytestvEUlvE0_Z6mytestvEUlvE1_EbT_T0_T1_EUlS1_E_E10_M_managerERSt9_Any_dataRKSC_St18_Manager_operation
FN:267,285,_ZNSt17_Function_handlerIFvRKiEZ21testCostruttoriSetVecIZ6mytestvEUlvE_Z6mytestvEUlvE0_Z6mytestvEUlvE1_EbT_T0_T1_EUlS1_E0_E10_M_managerERSt9_Any_dataRKSC_St18_Manager_operation
FN:267,285,_ZNSt17_Function_handlerIFvRKiEZ21testCostruttoriSetVecIZ6mytestvEUlvE_Z6mytestvEUlvE0_Z6mytestvEUlvE1_EbT_T0_T1_EUlS1_E1_E10_M_managerERSt9_Any_dataRKSC_St18_Manager_operation
FN:267,285,_ZNSt17_Function_handlerIFvRKiEZ21testCostruttoriSetVecIZ6mytestvEUlvE_Z6mytestvEUlvE0_Z6mytestvEUlvE1_EbT_T0_T1_EUlS1_E2_E10_M_managerERSt9_Any_dataRKSC_St18_Manager_operation
FN:267,285,_ZNSt17_Function_handlerIFvRKiEZ21testCostruttoriSetVecIZ6mytestvEUlvE_Z6mytestvEUlvE0_Z6mytestvEUlvE1_EbT_T0_T1_EUlS1_E3_E10_M_managerERSt9_Any_dataRKSC_St18_Manager_operation
FN:267,285,_ZNSt17_Function_handlerIFvRKiEZ21testCostruttoriSetVecIZ6mytestvEUlvE_Z6mytestvEUlvE0_Z6mytestvEUlvE1_EbT_T0_T1_EUlS1_E_E10_M_managerERSt9_Any_dataRKSC_St18_Manager_operation
FN:267,285,_ZNSt17_Function_handlerIFvRKiEZ21testCostruttoriVectorvEUlS1_E0_E10_M_managerERSt9_Any_dataRKS5_St18_Manager_operation
FN:267,285,_ZNSt17_Function_handlerIFvRKiEZ21testCostruttoriVectorvEUlS1_E1_E10_M_managerERSt9_Any_dataRKS5_St18_Manager_operation
FN:267,285,_ZNSt17_Function_handlerIFvRKiEZ21testCostruttoriVectorvEUlS1_E_E10_M_managerERSt9_Any_dataRKS5_St18_Manager_operation
FN:267,285,_ZNSt17_Function_handlerIFvRKiEZ22testCostruttoriHeapVecIZ6mytestvEUlvE_Z6mytestvEUlvE0_Z6mytestvEUlvE1_EbT_T0_T1_EUlS1_E0_E10_M_managerERSt9_Any_dataRKSC_St18_Manager_operation
FN:267,285,_ZNSt17_Function_handlerIFvRKiEZ22testCostruttoriHeapVecIZ6mytestvEUlvE_Z6mytestvEUlvE0_Z6mytestvEUlvE1_EbT_T0_T1_EUlS1_E1_E10_M_managerERSt9_Any_dataRKSC_St18_Manager_operation
FN:267,285,_ZNSt17_Function_handlerIFvRKiEZ22testCostruttoriHeapVecIZ6mytestvEUlvE_Z6mytestvEUlvE0_Z6mytestvEUlvE1_EbT_T0_T1_EUlS1_E2_E10_M_managerERSt9_Any_dataRKSC_St18_Manager_operation
FN:267,285,_ZNSt17_Function_handlerIFvRKiEZ22testCostruttoriHeapVecIZ6mytestvEUlvE_Z6mytestvEUlvE0_Z6mytestvEUlvE1_EbT_T0_T1_EUlS1_E3_E10_M_managerERSt9_Any_dataRKSC_St18_Manager_operation
FN:267,285,_ZNSt17_Function_handlerIFvRKiEZ22testCostruttoriHeapVecIZ6mytestvEUlvE_Z6mytestvEUlvE0_Z6mytestvEUlvE1_EbT_T0_T1_EUlS1_E_E10_M_managerERSt9_Any_dataRKSC_St18_Manager_operation
FN:267,285,_ZNSt17_Function_handlerIFvRKiEZ27testUlterioriFunzioniVectorIZ6mytestvEUlvE_EbT_EUlS1_E0_E10_M_managerERSt9_Any_dataRKS8_St18_Manager_operation
FN:267,285,_ZNSt17_Function_handlerIFvRKiEZ27testUlterioriFunzioniVectorIZ6mytestvEUlvE_EbT_EUlS1_E1_E10_M_managerERSt9_Any_dataRKS8_St18_Manager_operation
FN:267,285,_ZNSt17_Function_handlerIFvRKiEZ27testUlterioriFunzioniVectorIZ6mytestvEUlvE_EbT_EUlS1_E2_E10_M_managerERSt9_Any_dataRKS8_St18_Manager_operation
FN:267,285,_ZNSt17_Function_handlerIFvRKiEZ27testUlterioriFunzioniVectorIZ6mytestvEUlvE_EbT_EUlS1_E3_E10_M_managerERSt9_Any_dataRKS8_St18_Manager_operation
FN:267,285,_ZNSt17_Function_handlerIFvRKiEZ27testUlterioriFunzioniVectorIZ6mytestvEUlvE_EbT_EUlS1_E4_E10_M_managerERSt9_Any_dataRKS8_St18_Manager_operation
FN:267,285,_ZNSt17_Function_handlerIFvRKiEZ27testUlterioriFunzioniVectorIZ6mytestvEUlvE_EbT_EUlS1_E5_E10_M_managerERSt9_Any_dataRKS8_St18_Manager_operation
FN:267,285,_ZNSt17_Function_handlerIFvRKiEZ27testUlterioriFunzioniVectorIZ6mytestvEUlvE_EbT_EUlS1_E6_E10_M_managerERSt9_Any_dataRKS8_St18_Manager_operation
FN:267,285,_ZNSt17_Function_handlerIFvRKiEZ27testUlterioriFunzioniVectorIZ6mytestvEUlvE_EbT_EUlS1_E7_E10_M_managerERSt9_Any_dataRKS8_St18_Manager_operation
FN:267,285,_ZNSt17_Function_handlerIFvRKiEZ27testUlterioriFunzioniVectorIZ6mytestvEUlvE_EbT_EUlS1_E8_E10_M_managerERSt9_Any_dataRKS8_St18_Manager_operation
FN:267,285,_ZNSt17_Function_handlerIFvRKiEZ27testUlterioriFunzioniVectorIZ6mytestvEUlvE_EbT_EUlS1_E_E10_M_managerERSt9_Any_dataRKS8_St18_Manager_operation
FN:267,285,_ZNSt17_Function_handlerIFvRKiEZN4lasd19DictionaryContainerIiE10InsertSomeERKNS3_20TraversableContainerIiEEEUlS1_E_E10_M_managerERSt9_Any_dataRKSC_St18_Manager_operation
FN:267,285,_ZNSt17_Function_handlerIFvRKiEZN4lasd19DictionaryContainerIiE10RemoveSomeERKNS3_20TraversableContainerIiEEEUlS1_E_E10_M_managerERSt9_Any_dataRKSC_St18_Manager_operation
FN:267,285,_ZNSt17_Function_handlerIFvRKiEZN4lasd19DictionaryContainerIiE9InsertAllERKNS3_20TraversableContainerIiEEEUlS1_E_E10_M_managerERSt9_Any_dataRKSC_St18_Manager_operation
FN:267,285,_ZNSt17_Function_handlerIFvRKiEZN4lasd19DictionaryContainerIiE9RemoveAllERKNS3_20TraversableContainerIiEEEUlS1_E_E10_M_managerERSt9_Any_dataRKSC_St18_Manager_operation
FN:267,285,_ZNSt17_Function_handlerIFvRKiEZN4lasd4ListIiEC4ERKNS3_20TraversableContainerIiEEEUlS1_E_E10_M_managerERSt9_Any_dataRKSC_St18_Manager_operation
FN:267,285,_ZNSt17_Function_handlerIFvRKiEZN4lasd6SetLstIiEC4ERKNS3_20TraversableContainerIiEEEUlS1_E_E10_M_managerERSt9_Any_dataRKSC_St18_Manager_operation
FN:267,285,_ZNSt17_Function_handlerIFvRKiEZN4lasd6SetVecIiEC4ERKNS3_20TraversableContainerIiEEEUlS1_E_E10_M_managerERSt9_Any_dataRKSC_St18_Manager_operation
FN:267,285,_ZNSt17_Function_handlerIFvRKiEZN4lasd6VectorIiEC4ERKNS3_20TraversableContainerIiEEEUlS1_E_E10_M_managerERSt9_Any_dataRKSC_St18_Manager_operation
FN:267,285,_ZNSt17_Function_handlerIFvRKiEZNK4lasd20TraversableContainerIiE6ExistsES1_EUlS1_E_E10_M_managerERSt9_Any_dataRKS8_St18_Manager_operation
FN:267,285,_ZNSt17_Function_handlerIFvRKiEZNK4lasd28PreOrderTraversableContainerIiE12PreOrderFoldIiEET_St8functionIFS7_S1_RKS7_EES7_EUlS1_E_E10_M_managerERSt9_Any_dataRKSF_St18_Manager_operation
FN:267,285,_ZNSt17_Function_handlerIFvRKiEZNK4lasd29PostOrderTraversableContainerIiE13PostOrderFoldIiEET_St8functionIFS7_S1_RKS7_EES7_EUlS1_E_E10_M_managerERSt9_Any_dataRKSF_St18_Manager_operation
FN:267,285,_ZNSt17_Function_handlerIFvRNSt7__cxx1112basic_stringIcSt11char_traitsIcESaIcEEEEZ15stestHeapStringRjS8_EUlS6_E0_E10_M_managerERSt9_Any_dataRKSB_St18_Manager_operation
FN:267,285,_ZNSt17_Function_handlerIFvRNSt7__cxx1112basic_stringIcSt11char_traitsIcESaIcEEEEZ15stestHeapStringRjS8_EUlS6_E_E10_M_managerERSt9_Any_dataRKSB_St18_Manager_operation
FN:267,285,_ZNSt17_Function_handlerIFvRNSt7__cxx1112basic_stringIcSt11char_traitsIcESaIcEEEEZ15stestListStringRjS8_EUlS6_E_E10_M_managerERSt9_Any_dataRKSB_St18_Manager_operation
FN:267,285,_ZNSt17_Function_handlerIFvRNSt7__cxx1112basic_stringIcSt11char_traitsIcESaIcEEEEZ17stestVectorStringRjS8_EUlS6_E0_E10_M_managerERSt9_Any_dataRKSB_St18_Manager_operation
FN:267,285,_ZNSt17_Function_handlerIFvRNSt7__cxx1112basic_stringIcSt11char_traitsIcESaIcEEEEZ17stestVectorStringRjS8_EUlS6_E_E10_M_managerERSt9_Any_dataRKSB_St18_Manager_operation
FN:267,285,_ZNSt17_Function_handlerIFvRNSt7__cxx1112basic_stringIcSt11char_traitsIcESaIcEEEEZN4lasd19DictionaryContainerIS5_E10InsertSomeEONS8_17MappableContainerIS5_EEEUlS6_E_E10_M_managerERSt9_Any_dataRKSG_St18_Manager_operation
FN:267,285,_ZNSt17_Function_handlerIFvRNSt7__cxx1112basic_stringIcSt11char_traitsIcESaIcEEEEZN4lasd19DictionaryContainerIS5_E9InsertAllEONS8_17MappableContainerIS5_EEEUlS6_E_E10_M_managerERSt9_Any_dataRKSG_St18_Manager_operation
FN:267,285,_ZNSt17_Function_handlerIFvRNSt7__cxx1112basic_stringIcSt11char_traitsIcESaIcEEEEZN4lasd4ListIS5_EC4EONS8_17MappableContainerIS5_EEEUlS6_E_E10_M_managerERSt9_Any_dataRKSG_St18_Manager_operation
FN:267,285,_ZNSt17_Function_handlerIFvRNSt7__cxx1112basic_stringIcSt11char_traitsIcESaIcEEEEZN4lasd6SetLstIS5_EC4EONS8_17MappableContainerIS5_EEEUlRKS5_E_E10_M_managerERSt9_Any_dataRKSI_St18_Manager_operation
FN:267,285,_ZNSt17_Function_handlerIFvRNSt7__cxx1112basic_stringIcSt11char_traitsIcESaIcEEEEZN4lasd6SetVecIS5_EC4EONS8_17MappableContainerIS5_EEEUlRKS5_E_E10_M_managerERSt9_Any_dataRKSI_St18_Manager_operation
FN:267,285,_ZNSt17_Function_handlerIFvRNSt7__cxx1112basic_stringIcSt11char_traitsIcESaIcEEEEZN4lasd6VectorIS5_EC4EONS8_17MappableContainerIS5_EEEUlS6_E_E10_M_managerERSt9_Any_dataRKSG_St18_Manager_operation
FN:267,285,_ZNSt17_Function_handlerIFvRdEZN4lasd19DictionaryContainerIdE10InsertSomeEONS2_17MappableContainerIdEEEUlS0_E_E10_M_managerERSt9_Any_dataRKSA_St18_Manager_operation
FN:267,285,_ZNSt17_Function_handlerIFvRdEZN4lasd19DictionaryContainerIdE9InsertAllEONS2_17MappableContainerIdEEEUlS0_E_E10_M_managerERSt9_Any_dataRKSA_St18_Manager_operation
FN:267,285,_ZNSt17_Function_handlerIFvRdEZN4lasd4ListIdEC4EONS2_17MappableContainerIdEEEUlS0_E_E10_M_managerERSt9_Any_dataRKSA_St18_Manager_operation
FN:267,285,_ZNSt17_Function_handlerIFvRdEZN4lasd6SetLstIdEC4EONS2_17MappableContainerIdEEEUlRKdE_E10_M_managerERSt9_Any_dataRKSC_St18_Manager_operation
FN:267,285,_ZNSt17_Function_handlerIFvRdEZN4lasd6SetVecIdEC4EONS2_17MappableContainerIdEEEUlRKdE_E10_M_managerERSt9_Any_dataRKSC_St18_Manager_operation
FN:267,285,_ZNSt17_Function_handlerIFvRdEZN4lasd6VectorIdEC4EONS2_17MappableContainerIdEEEUlS0_E_E10_M_managerERSt9_Any_dataRKSA_St18_Manager_operation
FN:267,285,_ZNSt17_Function_handlerIFvRiEPS1_E10_M_managerERSt9_Any_dataRKS4_St18_Manager_operation
FN:267,285,_ZNSt17_Function_handlerIFvRiEZ16testFunzioniListvEUlS0_E0_E10_M_managerERSt9_Any_dataRKS4_St18_Manager_operation
FN:267,285,_ZNSt17_Function_handlerIFvRiEZ16testFunzioniListvEUlS0_E_E10_M_managerERSt9_Any_dataRKS4_St18_Manager_operation
FN:267,285,_ZNSt17_Function_handlerIFvRiEZ27testUlterioriFunzioniVectorIZ6mytestvEUlvE_EbT_EUlS0_E0_E10_M_managerERSt9_Any_dataRKS7_St18_Manager_operation
FN:267,285,_ZNSt17_Function_handlerIFvRiEZ27testUlterioriFunzioniVectorIZ6mytestvEUlvE_EbT_EUlS0_E_E10_M_managerERSt9_Any_dataRKS7_St18_Manager_operation
FN:267,285,_ZNSt17_Function_handlerIFvRiEZN4lasd19DictionaryContainerIiE10InsertSomeEONS2_17MappableContainerIiEEEUlS0_E_E10_M_managerERSt9_Any_dataRKSA_St18_Manager_operation
FN:267,285,_ZNSt17_Function_handlerIFvRiEZN4lasd19DictionaryContainerIiE9InsertAllEONS2_17MappableContainerIiEEEUlS0_E_E10_M_managerERSt9_Any_dataRKSA_St18_Manager_operation
FN:267,285,_ZNSt17_Function_handlerIFvRiEZN4lasd4ListIiEC4EONS2_17MappableContainerIiEEEUlS0_E_E10_M_managerERSt9_Any_dataRKSA_St18_Manager_operation
FN:267,285,_ZNSt17_Function_handlerIFvRiEZN4lasd6SetLstIiEC4EONS2_17MappableContainerIiEEEUlRKiE_E10_M_managerERSt9_Any_dataRKSC_St18_Manager_operation
FN:267,285,_ZNSt17_Function_handlerIFvRiEZN4lasd6SetVecIiEC4EONS2_17MappableContainerIiEEEUlRKiE_E10_M_managerERSt9_Any_dataRKSC_St18_Manager_operation
FN:267,285,_ZNSt17_Function_handlerIFvRiEZN4lasd6VectorIiEC4EONS2_17MappableContainerIiEEEUlS0_E_E10_M_managerERSt9_Any_dataRKSA_St18_Manager_operation
FN:288,292,_ZNSt17_Function_handlerIFNSt7__cxx1112basic_stringIcSt11char_traitsIcESaIcEEERKS5_S7_EPS8_E9_M_invokeERKSt9_Any_dataS7_S7_
FN:288,292,_ZNSt17_Function_handlerIFNSt7__cxx1112basic_stringIcSt11char_traitsIcESaIcEEERKS5_S7_EZ16testFunzioniListvEUlS7_S7_E0_E9_M_invokeERKSt9_Any_dataS7_S7_
FN:288,292,_ZNSt17_Function_handlerIFNSt7__cxx1112basic_stringIcSt11char_traitsIcESaIcEEERKS5_S7_EZ16testFunzioniListvEUlS7_S7_E_E9_M_invokeERKSt9_Any_dataS7_S7_
FN:288,292,_ZNSt17_Function_handlerIFNSt7__cxx1112basic_stringIcSt11char_traitsIcESaIcEEERKS5_S7_EZ18testFunzioniPQHeapvEUlS7_S7_E0_E9_M_invokeERKSt9_Any_dataS7_S7_
FN:288,292,_ZNSt17_Function_handlerIFNSt7__cxx1112basic_stringIcSt11char_traitsIcESaIcEEERKS5_S7_EZ18testFunzioniPQHeapvEUlS7_S7_E_E9_M_invokeERKSt9_Any_dataS7_S7_
FN:288,292,_ZNSt17_Function_handlerIFNSt7__cxx1112basic_stringIcSt11char_traitsIcESaIcEEERKS5_S7_EZ18testFunzioniSetLstvEUlS7_S7_E0_E9_M_invokeERKSt9_Any_dataS7_S7_
FN:288,292,_ZNSt17_Function_handlerIFNSt7__cxx1112basic_stringIcSt11char_traitsIcESaIcEEERKS5_S7_EZ18testFunzioniSetLstvEUlS7_S7_E_E9_M_invokeERKSt9_Any_dataS7_S7_
FN:288,292,_ZNSt17_Function_handlerIFNSt7__cxx1112basic_stringIcSt11char_traitsIcESaIcEEERKS5_S7_EZ18testFunzioniSetVecvEUlS7_S7_E0_E9_M_invokeERKSt9_Any_dataS7_S7_
FN:288,292,_ZNSt17_Function_handlerIFNSt7__cxx1112basic_stringIcSt11char_traitsIcESaIcEEERKS5_S7_EZ18testFunzioniSetVecvEUlS7_S7_E_E9_M_invokeERKSt9_Any_dataS7_S7_
FN:288,292,_ZNSt17_Function_handlerIFNSt7__cxx1112basic_stringIcSt11char_traitsIcESaIcEEERKS5_S7_EZ19testFunzioniHeapVecvEUlS7_S7_E0_E9_M_invokeERKSt9_Any_dataS7_S7_
FN:288,292,_ZNSt17_Function_handlerIFNSt7__cxx1112basic_stringIcSt11char_traitsIcESaIcEEERKS5_S7_EZ19testFunzioniHeapVecvEUlS7_S7_E_E9_M_invokeERKSt9_Any_dataS7_S7_
FN:288,292,_ZNSt17_Function_handlerIFNSt7__cxx1112basic_stringIcSt11char_traitsIcESaIcEEERKS5_S7_EZ27testUlterioriFunzioniVectorIZ6mytestvEUlvE_EbT_EUlS7_S7_E0_E9_M_invokeERKSt9_Any_dataS7_S7_
FN:288,292,_ZNSt17_Function_handlerIFNSt7__cxx1112basic_stringIcSt11char_traitsIcESaIcEEERKS5_S7_EZ27testUlterioriFunzioniVectorIZ6mytestvEUlvE_EbT_EUlS7_S7_E_E9_M_invokeERKSt9_Any_dataS7_S7_
FN:288,292,_ZNSt17_Function_handlerIFdRKdS1_EPS2_E9_M_invokeERKSt9_Any_dataS1_S1_
FN:288,292,_ZNSt17_Function_handlerIFiRKiS1_EPS2_E9_M_invokeERKSt9_Any_dataS1_S1_
FN:288,292,_ZNSt17_Function_handlerIFiRKiS1_EZ16testFunzioniListvEUlS1_S1_E0_E9_M_invokeERKSt9_Any_dataS1_S1_
FN:288,292,_ZNSt17_Function_handlerIFiRKiS1_EZ16testFunzioniListvEUlS1_S1_E_E9_M_invokeERKSt9_Any_dataS1_S1_
FN:288,292,_ZNSt17_Function_handlerIFiRKiS1_EZ18testFunzioniPQHeapvEUlS1_S1_E0_E9_M_invokeERKSt9_Any_dataS1_S1_
FN:288,292,_ZNSt17_Function_handlerIFiRKiS1_EZ18testFunzioniPQHeapvEUlS1_S1_E_E9_M_invokeERKSt9_Any_dataS1_S1_
FN:288,292,_ZNSt17_Function_handlerIFiRKiS1_EZ18testFunzioniSetVecvEUlS1_S1_E0_E9_M_invokeERKSt9_Any_dataS1_S1_
FN:288,292,_ZNSt17_Function_handlerIFiRKiS1_EZ18testFunzioniSetVecvEUlS1_S1_E_E9_M_invokeERKSt9_Any_dataS1_S1_
FN:288,292,_ZNSt17_Function_handlerIFiRKiS1_EZ19testFunzioniHeapVecvEUlS1_S1_E0_E9_M_invokeERKSt9_Any_dataS1_S1_
FN:288,292,_ZNSt17_Function_handlerIFiRKiS1_EZ19testFunzioniHeapVecvEUlS1_S1_E_E9_M_invokeERKSt9_Any_dataS1_S1_
FN:288,292,_ZNSt17_Function_handlerIFiRKiS1_EZ27testUlterioriFunzioniVectorIZ6mytestvEUlvE_EbT_EUlS1_S1_E0_E9_M_invokeERKSt9_Any_dataS1_S1_
FN:288,292,_ZNSt17_Function_handlerIFiRKiS1_EZ27testUlterioriFunzioniVectorIZ6mytestvEUlvE_EbT_EUlS1_S1_E_E9_M_invokeERKSt9_Any_dataS1_S1_
FN:288,292,_ZNSt17_Function_handlerIFvRKNSt7__cxx1112basic_stringIcSt11char_traitsIcESaIcEEEEPS8_E9_M_invokeERKSt9_Any_dataS7_
FN:288,292,_ZNSt17_Function_handlerIFvRKNSt7__cxx1112basic_stringIcSt11char_traitsIcESaIcEEEEZ19testCostruttoriListvEUlS7_E0_E9_M_invokeERKSt9_Any_dataS7_
FN:288,292,_ZNSt17_Function_handlerIFvRKNSt7__cxx1112basic_stringIcSt11char_traitsIcESaIcEEEEZ19testCostruttoriListvEUlS7_E1_E9_M_invokeERKSt9_Any_dataS7_
FN:288,292,_ZNSt17_Function_handlerIFvRKNSt7__cxx1112basic_stringIcSt11char_traitsIcESaIcEEEEZ19testCostruttoriListvEUlS7_E_E9_M_invokeERKSt9_Any_dataS7_
FN:288,292,_ZNSt17_Function_handlerIFvRKNSt7__cxx1112basic_stringIcSt11char_traitsIcESaIcEEEEZ21testCostruttoriPQHeapIZ6mytestvEUlvE_Z6mytestvEUlvE0_Z6mytestvEUlvE1_EbT_T0_T1_EUlS7_E0_E9_M_invokeERKSt9_Any_dataS7_
FN:288,292,_ZNSt17_Function_handlerIFvRKNSt7__cxx1112basic_stringIcSt11char_traitsIcESaIcEEEEZ21testCostruttoriPQHeapIZ6mytestvEUlvE_Z6mytestvEUlvE0_Z6mytestvEUlvE1_EbT_T0_T1_EUlS7_E1_E9_M_invokeERKSt9_Any_dataS7_
FN:288,292,_ZNSt17_Function_handlerIFvRKNSt7__cxx1112basic_stringIcSt11char_traitsIcESaIcEEEEZ21testCostruttoriPQHeapIZ6mytestvEUlvE_Z6mytestvEUlvE0_Z6mytestvEUlvE1_EbT_T0_T1_EUlS7_E2_E9_M_invokeERKSt9_Any_dataS7_
FN:288,292,_ZNSt17_Function_handlerIFvRKNSt7__cxx1112basic_stringIcSt11char_traitsIcESaIcEEEEZ21testCostruttoriPQHeapIZ6mytestvEUlvE_Z6mytestvEUlvE0_Z6mytestvEUlvE1_EbT_T0_T1_EUlS7_E3_E9_M_invokeERKSt9_Any_dataS7_
FN:288,292,_ZNSt17_Function_handlerIFvRKNSt7__cxx1112basic_stringIcSt11char_traitsIcESaIcEEEEZ21testCostruttoriPQHeapIZ6mytestvEUlvE_Z6mytestvEUlvE0_Z6mytestvEUlvE1_EbT_T0_T1_EUlS7_E_E9_M_invokeERKSt9_Any_dataS7_
FN:288,292,_ZNSt17_Function_handlerIFvRKNSt7__cxx1112basic_stringIcSt11char_traitsIcESaIcEEEEZ21testCostruttoriSetLstIZ6mytestvEUlvE_Z6mytestvEUlvE0_Z6mytestvEUlvE1_EbT_T0_T1_EUlS7_E0_E9_M_invokeERKSt9_Any_dataS7_
FN:288,292,_ZNSt17_Function_handlerIFvRKNSt7__cxx1112basic_stringIcSt11char_traitsIcESaIcEEEEZ21testCostruttoriSetLstIZ6mytestvEUlvE_Z6mytestvEUlvE0_Z6mytestvEUlvE1_EbT_T0_T1_EUlS7_E1_E9_M_invokeERKSt9_Any_dataS7_
FN:288,292,_ZNSt17_Function_handlerIFvRKNSt7__cxx1112basic_stringIcSt11char_traitsIcESaIcEEEEZ21testCostruttoriSetLstIZ6mytestvEUlvE_Z6mytestvEUlvE0_Z6mytestvEUlvE1_EbT_T0_T1_EUlS7_E2_E9_M_invokeERKSt9_Any_dataS7_
FN:288,292,_ZNSt17_Function_handlerIFvRKNSt7__cxx1112basic_stringIcSt11char_traitsIcESaIcEEEEZ21testCostruttoriSetLstIZ6mytestvEUlvE_Z6mytestvEUlvE0_Z6mytestvEUlvE1_EbT_T0_T1_EUlS7_E3_E9_M_invokeERKSt9_Any_dataS7_
FN:288,292,_ZNSt17_Function_handlerIFvRKNSt7__cxx1112basic_stringIcSt11char_traitsIcESaIcEEEEZ21testCostruttoriSetLstIZ6mytestvEUlvE_Z6mytestvEUlvE0_Z6mytestvEUlvE1_EbT_T0_T1_EUlS7_E_E9_M_invokeERKSt9_Any_dataS7_
FN:288,292,_ZNSt17_Function_handlerIFvRKNSt7__cxx1112basic_stringIcSt11char_traitsIcESaIcEEEEZ21testCostruttoriSetVecIZ6mytestvEUlvE_Z6mytestvEUlvE0_Z6mytestvEUlvE1_EbT_T0_T1_EUlS7_E0_E9_M_invokeERKSt9_Any_dataS7_
FN:288,292,_ZNSt17_Function_handlerIFvRKNSt7__cxx1112basic_stringIcSt11char_traitsIcESaIcEEEEZ21testCostruttoriSetVecIZ6mytestvEUlvE_Z6mytestvEUlvE0_Z6mytestvEUlvE1_EbT_T0_T1_EUlS7_E1_E9_M_invokeERKSt9_Any_dataS7_
FN:288,292,_ZNSt17_Function_handlerIFvRKNSt7__cxx1112basic_stringIcSt11char_traitsIcESaIcEEEEZ21testCostruttoriSetVecIZ6mytestvEUlvE_Z6mytestvEUlvE0_Z6mytestvEUlvE1_EbT_T0_T1_EUlS7_E2_E9_M_invokeERKSt9_Any_dataS7_
FN:288,292,_ZNSt17_Function_handlerIFvRKNSt7__cxx1112basic_stringIcSt11char_traitsIcESaIcEEEEZ21testCostruttoriSetVecIZ6mytestvEUlvE_Z6mytestvEUlvE0_Z6mytestvEUlvE1_EbT_T0_T1_EUlS7_E3_E9_M_invokeERKSt9_Any_dataS7_
FN:288,292,_ZNSt17_Function_handlerIFvRKNSt7__cxx1112basic_stringIcSt11char_traitsIcESaIcEEEEZ21testCostruttoriSetVecIZ6mytestvEUlvE_Z6mytestvEUlvE0_Z6mytestvEUlvE1_EbT_T0_T1_EUlS7_E_E9_M_invokeERKSt9_Any_dataS7_
FN:288,292,_ZNSt17_Function_handlerIFvRKNSt7__cxx1112basic_stringIcSt11char_traitsIcESaIcEEEEZ21testCostruttoriVectorvEUlS7_E0_E9_M_invokeERKSt9_Any_dataS7_
FN:288,292,_ZNSt17_Function_handlerIFvRKNSt7__cxx1112basic_stringIcSt11char_traitsIcESaIcEEEEZ21testCostruttoriVectorvEUlS7_E1_E9_M_invokeERKSt9_Any_dataS7_
FN:288,292,_ZNSt17_Function_handlerIFvRKNSt7__cxx1112basic_stringIcSt11char_traitsIcESaIcEEEEZ21testCostruttoriVectorvEUlS7_E_E9_M_invokeERKSt9_Any_dataS7_
FN:288,292,_ZNSt17_Function_handlerIFvRKNSt7__cxx1112basic_stringIcSt11char_traitsIcESaIcEEEEZ22testCostruttoriHeapVecIZ6mytestvEUlvE_Z6mytestvEUlvE0_Z6mytestvEUlvE1_EbT_T0_T1_EUlS7_E0_E9_M_invokeERKSt9_Any_dataS7_
FN:288,292,_ZNSt17_Function_handlerIFvRKNSt7__cxx1112basic_stringIcSt11char_traitsIcESaIcEEEEZ22testCostruttoriHeapVecIZ6mytestvEUlvE_Z6mytestvEUlvE0_Z6mytestvEUlvE1_EbT_T0_T1_EUlS7_E1_E9_M_invokeERKSt9_Any_dataS7_
FN:288,292,_ZNSt17_Function_handlerIFvRKNSt7__cxx1112basic_stringIcSt11char_traitsIcESaIcEEEEZ22testCostruttoriHeapVecIZ6mytestvEUlvE_Z6mytestvEUlvE0_Z6mytestvEUlvE1_EbT_T0_T1_EUlS7_E2_E9_M_invokeERKSt9_Any_dataS7_
FN:288,292,_ZNSt17_Function_handlerIFvRKNSt7__cxx1112basic_stringIcSt11char_traitsIcESaIcEEEEZ22testCostruttoriHeapVecIZ6mytestvEUlvE_Z6mytestvEUlvE0_Z6mytestvEUlvE1_EbT_T0_T1_EUlS7_E3_E9_M_invokeERKSt9_Any_dataS7_
FN:288,292,_ZNSt17_Function_handlerIFvRKNSt7__cxx1112basic_stringIcSt11char_traitsIcESaIcEEEEZ22testCostruttoriHeapVecIZ6mytestvEUlvE_Z6mytestvEUlvE0_Z6mytestvEUlvE1_EbT_T0_T1_EUlS7_E_E9_M_invokeERKSt9_Any_dataS7_
FN:288,292,_ZNSt17_Function_handlerIFvRKNSt7__cxx1112basic_stringIcSt11char_traitsIcESaIcEEEEZN4lasd19DictionaryContainerIS5_E10InsertSomeERKNS9_20TraversableContainerIS5_EEEUlS7_E_E9_M_invokeERKSt9_Any_dataS7_
FN:288,292,_ZNSt17_Function_handlerIFvRKNSt7__cxx1112basic_stringIcSt11char_traitsIcESaIcEEEEZN4lasd19DictionaryContainerIS5_E10RemoveSomeERKNS9_20TraversableContainerIS5_EEEUlS7_E_E9_M_invokeERKSt9_Any_dataS7_
FN:288,292,_ZNSt17_Function_handlerIFvRKNSt7__cxx1112basic_stringIcSt11char_traitsIcESaIcEEEEZN4lasd19DictionaryContainerIS5_E9InsertAllERKNS9_20TraversableContainerIS5_EEEUlS7_E_E9_M_invokeERKSt9_Any_dataS7_
FN:288,292,_ZNSt17_Function_handlerIFvRKNSt7__cxx1112basic_stringIcSt11char_traitsIcESaIcEEEEZN4lasd19DictionaryContainerIS5_E9RemoveAllERKNS9_20TraversableContainerIS5_EEEUlS7_E_E9_M_invokeERKSt9_Any_dataS7_
FN:288,292,_ZNSt17_Function_handlerIFvRKNSt7__cxx1112basic_stringIcSt11char_traitsIcESaIcEEEEZN4lasd4ListIS5_EC4ERKNS9_20TraversableContainerIS5_EEEUlS7_E_E9_M_invokeERKSt9_Any_dataS7_
FN:288,292,_ZNSt17_Function_handlerIFvRKNSt7__cxx1112basic_stringIcSt11char_traitsIcESaIcEEEEZN4lasd6SetLstIS5_EC4ERKNS9_20TraversableContainerIS5_EEEUlS7_E_E9_M_invokeERKSt9_Any_dataS7_
FN:288,292,_ZNSt17_Function_handlerIFvRKNSt7__cxx1112basic_stringIcSt11char_traitsIcESaIcEEEEZN4lasd6SetVecIS5_EC4ERKNS9_20TraversableContainerIS5_EEEUlS7_E_E9_M_invokeERKSt9_Any_dataS7_
FN:288,292,_ZNSt17_Function_handlerIFvRKNSt7__cxx1112basic_stringIcSt11char_traitsIcESaIcEEEEZN4lasd6VectorIS5_EC4ERKNS9_20TraversableContainerIS5_EEEUlS7_E_E9_M_invokeERKSt9_Any_dataS7_
FN:288,292,_ZNSt17_Function_handlerIFvRKNSt7__cxx1112basic_stringIcSt11char_traitsIcESaIcEEEEZNK4lasd20TraversableContainerIS5_E6ExistsES7_EUlS7_E_E9_M_invokeERKSt9_Any_dataS7_
FN:288,292,_ZNSt17_Function_handlerIFvRKNSt7__cxx1112basic_stringIcSt11char_traitsIcESaIcEEEEZNK4lasd28PreOrderTraversableContainerIS5_E12PreOrderFoldIS5_EET_St8functionIFSD_S7_RKSD_EESD_EUlS7_E_E9_M_invokeERKSt9_Any_dataS7_
FN:288,292,_ZNSt17_Function_handlerIFvRKNSt7__cxx1112basic_stringIcSt11char_traitsIcESaIcEEEEZNK4lasd29PostOrderTraversableContainerIS5_E13PostOrderFoldIS5_EET_St8functionIFSD_S7_RKSD_EESD_EUlS7_E_E9_M_invokeERKSt9_Any_dataS7_
FN:288,292,_ZNSt17_Function_handlerIFvRKdEPS2_E9_M_invokeERKSt9_Any_dataS1_
FN:288,292,_ZNSt17_Function_handlerIFvRKdEZ19testCostruttoriListvEUlS1_E0_E9_M_invokeERKSt9_Any_dataS1_
FN:288,292,_ZNSt17_Function_handlerIFvRKdEZ19testCostruttoriListvEUlS1_E1_E9_M_invokeERKSt9_Any_dataS1_
FN:288,292,_ZNSt17_Function_handlerIFvRKdEZ19testCostruttoriListvEUlS1_E_E9_M_invokeERKSt9_Any_dataS1_
FN:288,292,_ZNSt17_Function_handlerIFvRKdEZ21testCostruttoriPQHeapIZ6mytestvEUlvE_Z6mytestvEUlvE0_Z6mytestvEUlvE1_EbT_T0_T1_EUlS1_E0_E9_M_invokeERKSt9_Any_dataS1_
FN:288,292,_ZNSt17_Function_handlerIFvRKdEZ21testCostruttoriPQHeapIZ6mytestvEUlvE_Z6mytestvEUlvE0_Z6mytestvEUlvE1_EbT_T0_T1_EUlS1_E1_E9_M_invokeERKSt9_Any_dataS1_
FN:288,292,_ZNSt17_Function_handlerIFvRKdEZ21testCostruttoriPQHeapIZ6mytestvEUlvE_Z6mytestvEUlvE0_Z6mytestvEUlvE1_EbT_T0_T1_EUlS1_E2_E9_M_invokeERKSt9_Any_dataS1_
FN:288,292,_ZNSt17_Function_handlerIFvRKdEZ21testCostruttoriPQHeapIZ6mytestvEUlvE_Z6mytestvEUlvE0_Z6mytestvEUlvE1_EbT_T0_T1_EUlS1_E3_E9_M_invokeERKSt9_Any_dataS1_
FN:288,292,_ZNSt17_Function_handlerIFvRKdEZ21testCostruttoriPQHeapIZ6mytestvEUlvE_Z6mytestvEUlvE0_Z6mytestvEUlvE1_EbT_T0_T1_EUlS1_E_E9_M_invokeERKSt9_Any_dataS1_
FN:288,292,_ZNSt17_Function_handlerIFvRKdEZ21testCostruttoriSetLstIZ6mytestvEUlvE_Z6mytestvEUlvE0_Z6mytestvEUlvE1_EbT_T0_T1_EUlS1_E0_E9_M_invokeERKSt9_Any_dataS1_
FN:288,292,_ZNSt17_Function_handlerIFvRKdEZ21testCostruttoriSetLstIZ6mytestvEUlvE_Z6mytestvEUlvE0_Z6mytestvEUlvE1_EbT_T0_T1_EUlS1_E1_E9_M_invokeERKSt9_Any_dataS1_
FN:288,292,_ZNSt17_Function_handlerIFvRKdEZ21testCostruttoriSetLstIZ6mytestvEUlvE_Z6mytestvEUlvE0_Z6mytestvEUlvE1_EbT_T0_T1_EUlS1_E2_E9_M_invokeERKSt9_Any_dataS1_
FN:288,292,_ZNSt17_Function_handlerIFvRKdEZ21testCostruttoriSetLstIZ6mytestvEUlvE_Z6mytestvEUlvE0_Z6mytestvEUlvE1_EbT_T0_T1_EUlS1_E3_E9_M_invokeERKSt9_Any_dataS1_
FN:288,292,_ZNSt17_Function_handlerIFvRKdEZ21testCostruttoriSetLstIZ6mytestvEUlvE_Z6mytestvEUlvE0_Z6mytestvEUlvE1_EbT_T0_T1_EUlS1_E_E9_M_invokeERKSt9_Any_dataS1_
FN:288,292,_ZNSt17_Function_handlerIFvRKdEZ21testCostruttoriSetVecIZ6mytestvEUlvE_Z6mytestvEUlvE0_Z6mytestvEUlvE1_EbT_T0_T1_EUlS1_E0_E9_M_invokeERKSt9_Any_dataS1_
FN:288,292,_ZNSt17_Function_handlerIFvRKdEZ21testCostruttoriSetVecIZ6mytestvEUlvE_Z6mytestvEUlvE0_Z6mytestvEUlvE1_EbT_T0_T1_EUlS1_E1_E9_M_invokeERKSt9_Any_dataS1_
FN:288,292,_ZNSt17_Function_handlerIFvRKdEZ21testCostruttoriSetVecIZ6mytestvEUlvE_Z6mytestvEUlvE0_Z6mytestvEUlvE1_EbT_T0_T1_EUlS1_E2_E9_M_invokeERKSt9_Any_dataS1_
FN:288,292,_ZNSt17_Function_handlerIFvRKdEZ21testCostruttoriSetVecIZ6mytestvEUlvE_Z6mytestvEUlvE0_Z6mytestvEUlvE1_EbT_T0_T1_EUlS1_E3_E9_M_invokeERKSt9_Any_dataS1_
FN:288,292,_ZNSt17_Function_handlerIFvRKdEZ21testCostruttoriSetVecIZ6mytestvEUlvE_Z6mytestvEUlvE0_Z6mytestvEUlvE1_EbT_T0_T1_EUlS1_E_E9_M_invokeERKSt9_Any_dataS1_
FN:288,292,_ZNSt17_Function_handlerIFvRKdEZ21testCostruttoriVectorvEUlS1_E0_E9_M_invokeERKSt9_Any_dataS1_
FN:288,292,_ZNSt17_Function_handlerIFvRKdEZ21testCostruttoriVectorvEUlS1_E1_E9_M_invokeERKSt9_Any_dataS1_
FN:288,292,_ZNSt17_Function_handlerIFvRKdEZ21testCostruttoriVectorvEUlS1_E_E9_M_invokeERKSt9_Any_dataS1_
FN:288,292,_ZNSt17_Function_handlerIFvRKdEZ22testCostruttoriHeapVecIZ6mytestvEUlvE_Z6mytestvEUlvE0_Z6mytestvEUlvE1_EbT_T0_T1_EUlS1_E0_E9_M_invokeERKSt9_Any_dataS1_
FN:288,292,_ZNSt17_Function_handlerIFvRKdEZ22testCostruttoriHeapVecIZ6mytestvEUlvE_Z6mytestvEUlvE0_Z6mytestvEUlvE1_EbT_T0_T1_EUlS1_E1_E9_M_invokeERKSt9_Any_dataS1_
FN:288,292,_ZNSt17_Function_handlerIFvRKdEZ22testCostruttoriHeapVecIZ6mytestvEUlvE_Z6mytestvEUlvE0_Z6mytestvEUlvE1_EbT_T0_T1_EUlS1_E2_E9_M_invokeERKSt9_Any_dataS1_
FN:288,292,_ZNSt17_Function_handlerIFvRKdEZ22testCostruttoriHeapVecIZ6mytestvEUlvE_Z6mytestvEUlvE0_Z6mytestvEUlvE1_EbT_T0_T1_EUlS1_E3_E9_M_invokeERKSt9_Any_dataS1_
FN:288,292,_ZNSt17_Function_handlerIFvRKdEZ22testCostruttoriHeapVecIZ6mytestvEUlvE_Z6mytestvEUlvE0_Z6mytestvEUlvE1_EbT_T0_T1_EUlS1_E_E9_M_invokeERKSt9_Any_dataS1_
FN:288,292,_ZNSt17_Function_handlerIFvRKdEZN4lasd19DictionaryContainerIdE10InsertSomeERKNS3_20TraversableContainerIdEEEUlS1_E_E9_M_invokeERKSt9_Any_dataS1_
FN:288,292,_ZNSt17_Function_handlerIFvRKdEZN4lasd19DictionaryContainerIdE10RemoveSomeERKNS3_20TraversableContainerIdEEEUlS1_E_E9_M_invokeERKSt9_Any_dataS1_
FN:288,292,_ZNSt17_Function_handlerIFvRKdEZN4lasd19DictionaryContainerIdE9InsertAllERKNS3_20TraversableContainerIdEEEUlS1_E_E9_M_invokeERKSt9_Any_dataS1_
FN:288,292,_ZNSt17_Function_handlerIFvRKdEZN4lasd19DictionaryContainerIdE9RemoveAllERKNS3_20TraversableContainerIdEEEUlS1_E_E9_M_invokeERKSt9_Any_dataS1_
FN:288,292,_ZNSt17_Function_handlerIFvRKdEZN4lasd4ListIdEC4ERKNS3_20TraversableContainerIdEEEUlS1_E_E9_M_invokeERKSt9_Any_dataS1_
FN:288,292,_ZNSt17_Function_handlerIFvRKdEZN4lasd6SetLstIdEC4ERKNS3_20TraversableContainerIdEEEUlS1_E_E9_M_invokeERKSt9_Any_dataS1_
FN:288,292,_ZNSt17_Function_handlerIFvRKdEZN4lasd6SetVecIdEC4ERKNS3_20TraversableContainerIdEEEUlS1_E_E9_M_invokeERKSt9_Any_dataS1_
FN:288,292,_ZNSt17_Function_handlerIFvRKdEZN4lasd6VectorIdEC4ERKNS3_20TraversableContainerIdEEEUlS1_E_E9_M_invokeERKSt9_Any_dataS1_
FN:288,292,_ZNSt17_Function_handlerIFvRKdEZNK4lasd20TraversableContainerIdE6ExistsES1_EUlS1_E_E9_M_invokeERKSt9_Any_dataS1_
FN:288,292,_ZNSt17_Function_handlerIFvRKdEZNK4lasd28PreOrderTraversableContainerIdE12PreOrderFoldIdEET_St8functionIFS7_S1_RKS7_EES7_EUlS1_E_E9_M_invokeERKSt9_Any_dataS1_
FN:288,292,_ZNSt17_Function_handlerIFvRKdEZNK4lasd29PostOrderTraversableContainerIdE13PostOrderFoldIdEET_St8functionIFS7_S1_RKS7_EES7_EUlS1_E_E9_M_invokeERKSt9_Any_dataS1_
FN:288,292,_ZNSt17_Function_handlerIFvRKiEPS2_E9_M_invokeERKSt9_Any_dataS1_
FN:288,292,_ZNSt17_Function_handlerIFvRKiEZ16testFunzioniListvEUlS1_E0_E9_M_invokeERKSt9_Any_dataS1_
FN:288,292,_ZNSt17_Function_handlerIFvRKiEZ16testFunzioniListvEUlS1_E10_E9_M_invokeERKSt9_Any_dataS1_
FN:288,292,_ZNSt17_Function_handlerIFvRKiEZ16testFunzioniListvEUlS1_E11_E9_M_invokeERKSt9_Any_dataS1_
FN:288,292,_ZNSt17_Function_handlerIFvRKiEZ16testFunzioniListvEUlS1_E1_E9_M_invokeERKSt9_Any_dataS1_
FN:288,292,_ZNSt17_Function_handlerIFvRKiEZ16testFunzioniListvEUlS1_E2_E9_M_invokeERKSt9_Any_dataS1_
FN:288,292,_ZNSt17_Function_handlerIFvRKiEZ16testFunzioniListvEUlS1_E3_E9_M_invokeERKSt9_Any_dataS1_
FN:288,292,_ZNSt17_Function_handlerIFvRKiEZ16testFunzioniListvEUlS1_E4_E9_M_invokeERKSt9_Any_dataS1_
FN:288,292,_ZNSt17_Function_handlerIFvRKiEZ16testFunzioniListvEUlS1_E5_E9_M_invokeERKSt9_Any_dataS1_
FN:288,292,_ZNSt17_Function_handlerIFvRKiEZ16testFunzioniListvEUlS1_E6_E9_M_invokeERKSt9_Any_dataS1_
FN:288,292,_ZNSt17_Function_handlerIFvRKiEZ16testFunzioniListvEUlS1_E7_E9_M_invokeERKSt9_Any_dataS1_
FN:288,292,_ZNSt17_Function_handlerIFvRKiEZ16testFunzioniListvEUlS1_E8_E9_M_invokeERKSt9_Any_dataS1_
FN:288,292,_ZNSt17_Function_handlerIFvRKiEZ16testFunzioniListvEUlS1_E9_E9_M_invokeERKSt9_Any_dataS1_
FN:288,292,_ZNSt17_Function_handlerIFvRKiEZ16testFunzioniListvEUlS1_E_E9_M_invokeERKSt9_Any_dataS1_
FN:288,292,_ZNSt17_Function_handlerIFvRKiEZ18testFunzioniPQHeapvEUlS1_E0_E9_M_invokeERKSt9_Any_dataS1_
FN:288,292,_ZNSt17_Function_handlerIFvRKiEZ18testFunzioniPQHeapvEUlS1_E1_E9_M_invokeERKSt9_Any_dataS1_
FN:288,292,_ZNSt17_Function_handlerIFvRKiEZ18testFunzioniPQHeapvEUlS1_E2_E9_M_invokeERKSt9_Any_dataS1_
FN:288,292,_ZNSt17_Function_handlerIFvRKiEZ18testFunzioniPQHeapvEUlS1_E3_E9_M_invokeERKSt9_Any_dataS1_
FN:288,292,_ZNSt17_Function_handlerIFvRKiEZ18testFunzioniPQHeapvEUlS1_E_E9_M_invokeERKSt9_Any_dataS1_
FN:288,292,_ZNSt17_Function_handlerIFvRKiEZ18testFunzioniSetLstvEUlS1_E0_E9_M_invokeERKSt9_Any_dataS1_
FN:288,292,_ZNSt17_Function_handlerIFvRKiEZ18testFunzioniSetLstvEUlS1_E10_E9_M_invokeERKSt9_Any_dataS1_
FN:288,292,_ZNSt17_Function_handlerIFvRKiEZ18testFunzioniSetLstvEUlS1_E11_E9_M_invokeERKSt9_Any_dataS1_
FN:288,292,_ZNSt17_Function_handlerIFvRKiEZ18testFunzioniSetLstvEUlS1_E12_E9_M_invokeERKSt9_Any_dataS1_
FN:288,292,_ZNSt17_Function_handlerIFvRKiEZ18testFunzioniSetLstvEUlS1_E13_E9_M_invokeERKSt9_Any_dataS1_
FN:288,292,_ZNSt17_Function_handlerIFvRKiEZ18testFunzioniSetLstvEUlS1_E14_E9_M_invokeERKSt9_Any_dataS1_
FN:288,292,_ZNSt17_Function_handlerIFvRKiEZ18testFunzioniSetLstvEUlS1_E15_E9_M_invokeERKSt9_Any_dataS1_
FN:288,292,_ZNSt17_Function_handlerIFvRKiEZ18testFunzioniSetLstvEUlS1_E16_E9_M_invokeERKSt9_Any_dataS1_
FN:288,292,_ZNSt17_Function_handlerIFvRKiEZ18testFunzioniSetLstvEUlS1_E17_E9_M_invokeERKSt9_Any_dataS1_
FN:288,292,_ZNSt17_Function_handlerIFvRKiEZ18testFunzioniSetLstvEUlS1_E18_E9_M_invokeERKSt9_Any_dataS1_
FN:288,292,_ZNSt17_Function_handlerIFvRKiEZ18testFunzioniSetLstvEUlS1_E19_E9_M_invokeERKSt9_Any_dataS1_
FN:288,292,_ZNSt17_Function_handlerIFvRKiEZ18testFunzioniSetLstvEUlS1_E1_E9_M_invokeERKSt9_Any_dataS1_
FN:288,292,_ZNSt17_Function_handlerIFvRKiEZ18testFunzioniSetLstvEUlS1_E20_E9_M_invokeERKSt9_Any_dataS1_
FN:288,292,_ZNSt17_Function_handlerIFvRKiEZ18testFunzioniSetLstvEUlS1_E2_E9_M_invokeERKSt9_Any_dataS1_
FN:288,292,_ZNSt17_Function_handlerIFvRKiEZ18testFunzioniSetLstvEUlS1_E3_E9_M_invokeERKSt9_Any_dataS1_
FN:288,292,_ZNSt17_Function_handlerIFvRKiEZ18testFunzioniSetLstvEUlS1_E4_E9_M_invokeERKSt9_Any_dataS1_
FN:288,292,_ZNSt17_Function_handlerIFvRKiEZ18testFunzioniSetLstvEUlS1_E5_E9_M_invokeERKSt9_Any_dataS1_
FN:288,292,_ZNSt17_Function_handlerIFvRKiEZ18testFunzioniSetLstvEUlS1_E6_E9_M_invokeERKSt9_Any_dataS1_
FN:288,292,_ZNSt17_Function_handlerIFvRKiEZ18testFunzioniSetLstvEUlS1_E7_E9_M_invokeERKSt9_Any_dataS1_
FN:288,292,_ZNSt17_Function_handlerIFvRKiEZ18testFunzioniSetLstvEUlS1_E8_E9_M_invokeERKSt9_Any_dataS1_
FN:288,292,_ZNSt17_Function_handlerIFvRKiEZ18testFunzioniSetLstvEUlS1_E9_E9_M_invokeERKSt9_Any_dataS1_
FN:288,292,_ZNSt17_Function_handlerIFvRKiEZ18testFunzioniSetLstvEUlS1_E_E9_M_invokeERKSt9_Any_dataS1_
FN:288,292,_ZNSt17_Function_handlerIFvRKiEZ18testFunzioniSetVecvEUlS1_E0_E9_M_invokeERKSt9_Any_dataS1_
FN:288,292,_ZNSt17_Function_handlerIFvRKiEZ18testFunzioniSetVecvEUlS1_E10_E9_M_invokeERKSt9_Any_dataS1_
FN:288,292,_ZNSt17_Function_handlerIFvRKiEZ18testFunzioniSetVecvEUlS1_E11_E9_M_invokeERKSt9_Any_dataS1_
FN:288,292,_ZNSt17_Function_handlerIFvRKiEZ18testFunzioniSetVecvEUlS1_E12_E9_M_invokeERKSt9_Any_dataS1_
FN:288,292,_ZNSt17_Function_handlerIFvRKiEZ18testFunzioniSetVecvEUlS1_E13_E9_M_invokeERKSt9_Any_dataS1_
FN:288,292,_ZNSt17_Function_handlerIFvRKiEZ18testFunzioniSetVecvEUlS1_E14_E9_M_invokeERKSt9_Any_dataS1_
FN:288,292,_ZNSt17_Function_handlerIFvRKiEZ18testFunzioniSetVecvEUlS1_E1_E9_M_invokeERKSt9_Any_dataS1_
FN:288,292,_ZNSt17_Function_handlerIFvRKiEZ18testFunzioniSetVecvEUlS1_E2_E9_M_invokeERKSt9_Any_dataS1_
FN:288,292,_ZNSt17_Function_handlerIFvRKiEZ18testFunzioniSetVecvEUlS1_E3_E9_M_invokeERKSt9_Any_dataS1_
FN:288,292,_ZNSt17_Function_handlerIFvRKiEZ18testFunzioniSetVecvEUlS1_E4_E9_M_invokeERKSt9_Any_dataS1_
FN:288,292,_ZNSt17_Function_handlerIFvRKiEZ18testFunzioniSetVecvEUlS1_E5_E9_M_invokeERKSt9_Any_dataS1_
FN:288,292,_ZNSt17_Function_handlerIFvRKiEZ18testFunzioniSetVecvEUlS1_E6_E9_M_invokeERKSt9_Any_dataS1_
FN:288,292,_ZNSt17_Function_handlerIFvRKiEZ18testFunzioniSetVecvEUlS1_E7_E9_M_invokeERKSt9_Any_dataS1_
FN:288,292,_ZNSt17_Function_handlerIFvRKiEZ18testFunzioniSetVecvEUlS1_E8_E9_M_invokeERKSt9_Any_dataS1_
FN:288,292,_ZNSt17_Function_handlerIFvRKiEZ18testFunzioniSetVecvEUlS1_E9_E9_M_invokeERKSt9_Any_dataS1_
FN:288,292,_ZNSt17_Function_handlerIFvRKiEZ18testFunzioniSetVecvEUlS1_E_E9_M_invokeERKSt9_Any_dataS1_
FN:288,292,_ZNSt17_Function_handlerIFvRKiEZ18testFunzioniVectorvEUlS1_E0_E9_M_invokeERKSt9_Any_dataS1_
FN:288,292,_ZNSt17_Function_handlerIFvRKiEZ18testFunzioniVectorvEUlS1_E1_E9_M_invokeERKSt9_Any_dataS1_
FN:288,292,_ZNSt17_Function_handlerIFvRKiEZ18testFunzioniVectorvEUlS1_E2_E9_M_invokeERKSt9_Any_dataS1_
FN:288,292,_ZNSt17_Function_handlerIFvRKiEZ18testFunzioniVectorvEUlS1_E_E9_M_invokeERKSt9_Any_dataS1_
FN:288,292,_ZNSt17_Function_handlerIFvRKiEZ19testCostruttoriListvEUlS1_E0_E9_M_invokeERKSt9_Any_dataS1_
FN:288,292,_ZNSt17_Function_handlerIFvRKiEZ19testCostruttoriListvEUlS1_E1_E9_M_invokeERKSt9_Any_dataS1_
FN:288,292,_ZNSt17_Function_handlerIFvRKiEZ19testCostruttoriListvEUlS1_E_E9_M_invokeERKSt9_Any_dataS1_
FN:288,292,_ZNSt17_Function_handlerIFvRKiEZ19testFunzioniHeapVecvEUlS1_E0_E9_M_invokeERKSt9_Any_dataS1_
FN:288,292,_ZNSt17_Function_handlerIFvRKiEZ19testFunzioniHeapVecvEUlS1_E1_E9_M_invokeERKSt9_Any_dataS1_
FN:288,292,_ZNSt17_Function_handlerIFvRKiEZ19testFunzioniHeapVecvEUlS1_E2_E9_M_invokeERKSt9_Any_dataS1_
FN:288,292,_ZNSt17_Function_handlerIFvRKiEZ19testFunzioniHeapVecvEUlS1_E3_E9_M_invokeERKSt9_Any_dataS1_
FN:288,292,_ZNSt17_Function_handlerIFvRKiEZ19testFunzioniHeapVecvEUlS1_E4_E9_M_invokeERKSt9_Any_dataS1_
FN:288,292,_ZNSt17_Function_handlerIFvRKiEZ19testFunzioniHeapVecvEUlS1_E_E9_M_invokeERKSt9_Any_dataS1_
FN:288,292,_ZNSt17_Function_handlerIFvRKiEZ20testCasiLimitePQHeapvEUlS1_E0_E9_M_invokeERKSt9_Any_dataS1_
FN:288,292,_ZNSt17_Function_handlerIFvRKiEZ20testCasiLimitePQHeapvEUlS1_E_E9_M_invokeERKSt9_Any_dataS1_
FN:288,292,_ZNSt17_Function_handlerIFvRKiEZ20testCasiLimiteSetLstvEUlS1_E0_E9_M_invokeERKSt9_Any_dataS1_
FN:288,292,_ZNSt17_Function_handlerIFvRKiEZ20testCasiLimiteSetLstvEUlS1_E1_E9_M_invokeERKSt9_Any_dataS1_
FN:288,292,_ZNSt17_Function_handlerIFvRKiEZ20testCasiLimiteSetLstvEUlS1_E2_E9_M_invokeERKSt9_Any_dataS1_
FN:288,292,_ZNSt17_Function_handlerIFvRKiEZ20testCasiLimiteSetLstvEUlS1_E3_E9_M_invokeERKSt9_Any_dataS1_
FN:288,292,_ZNSt17_Function_handlerIFvRKiEZ20testCasiLimiteSetLstvEUlS1_E4_E9_M_invokeERKSt9_Any_dataS1_
FN:288,292,_ZNSt17_Function_handlerIFvRKiEZ20testCasiLimiteSetLstvEUlS1_E5_E9_M_invokeERKSt9_Any_dataS1_
FN:288,292,_ZNSt17_Function_handlerIFvRKiEZ20testCasiLimiteSetLstvEUlS1_E6_E9_M_invokeERKSt9_Any_dataS1_
FN:288,292,_ZNSt17_Function_handlerIFvRKiEZ20testCasiLimiteSetLstvEUlS1_E7_E9_M_invokeERKSt9_Any_dataS1_
FN:288,292,_ZNSt17_Function_handlerIFvRKiEZ20testCasiLimiteSetLstvEUlS1_E8_E9_M_invokeERKSt9_Any_dataS1_
FN:288,292,_ZNSt17_Function_handlerIFvRKiEZ20testCasiLimiteSetLstvEUlS1_E_E9_M_invokeERKSt9_Any_dataS1_
FN:288,292,_ZNSt17_Function_handlerIFvRKiEZ20testCasiLimiteSetVecvEUlS1_E0_E9_M_invokeERKSt9_Any_dataS1_
FN:288,292,_ZNSt17_Function_handlerIFvRKiEZ20testCasiLimiteSetVecvEUlS1_E10_E9_M_invokeERKSt9_Any_dataS1_
FN:288,292,_ZNSt17_Function_handlerIFvRKiEZ20testCasiLimiteSetVecvEUlS1_E11_E9_M_invokeERKSt9_Any_dataS1_
FN:288,292,_ZNSt17_Function_handlerIFvRKiEZ20testCasiLimiteSetVecvEUlS1_E12_E9_M_invokeERKSt9_Any_dataS1_
FN:288,292,_ZNSt17_Function_handlerIFvRKiEZ20testCasiLimiteSetVecvEUlS1_E1_E9_M_invokeERKSt9_Any_dataS1_
FN:288,292,_ZNSt17_Function_handlerIFvRKiEZ20testCasiLimiteSetVecvEUlS1_E2_E9_M_invokeERKSt9_Any_dataS1_
FN:288,292,_ZNSt17_Function_handlerIFvRKiEZ20testCasiLimiteSetVecvEUlS1_E3_E9_M_invokeERKSt9_Any_dataS1_
FN:288,292,_ZNSt17_Function_handlerIFvRKiEZ20testCasiLimiteSetVecvEUlS1_E4_E9_M_invokeERKSt9_Any_dataS1_
FN:288,292,_ZNSt17_Function_handlerIFvRKiEZ20testCasiLimiteSetVecvEUlS1_E5_E9_M_invokeERKSt9_Any_dataS1_
FN:288,292,_ZNSt17_Function_handlerIFvRKiEZ20testCasiLimiteSetVecvEUlS1_E6_E9_M_invokeERKSt9_Any_dataS1_
FN:288,292,_ZNSt17_Function_handlerIFvRKiEZ20testCasiLimiteSetVecvEUlS1_E7_E9_M_invokeERKSt9_Any_dataS1_
FN:288,292,_ZNSt17_Function_handlerIFvRKiEZ20testCasiLimiteSetVecvEUlS1_E8_E9_M_invokeERKSt9_Any_dataS1_
FN:288,292,_ZNSt17_Function_handlerIFvRKiEZ20testCasiLimiteSetVecvEUlS1_E9_E9_M_invokeERKSt9_Any_dataS1_
FN:288,292,_ZNSt17_Function_handlerIFvRKiEZ20testCasiLimiteSetVecvEUlS1_E_E9_M_invokeERKSt9_Any_dataS1_
FN:288,292,_ZNSt17_Function_handlerIFvRKiEZ21testCostruttoriPQHeapIZ6mytestvEUlvE_Z6mytestvEUlvE0_Z6mytestvEUlvE1_EbT_T0_T1_EUlS1_E0_E9_M_invokeERKSt9_Any_dataS1_
FN:288,292,_ZNSt17_Function_handlerIFvRKiEZ21testCostruttoriPQHeapIZ6mytestvEUlvE_Z6mytestvEUlvE0_Z6mytestvEUlvE1_EbT_T0_T1_EUlS1_E1_E9_M_invokeERKSt9_Any_dataS1_
FN:288,292,_ZNSt17_Function_handlerIFvRKiEZ21testCostruttoriPQHeapIZ6mytestvEUlvE_Z6mytestvEUlvE0_Z6mytestvEUlvE1_EbT_T0_T1_EUlS1_E2_E9_M_invokeERKSt9_Any_dataS1_
FN:288,292,_ZNSt17_Function_handlerIFvRKiEZ21testCostruttoriPQHeapIZ6mytestvEUlvE_Z6mytestvEUlvE0_Z6mytestvEUlvE1_EbT_T0_T1_EUlS1_E3_E9_M_invokeERKSt9_Any_dataS1_
FN:288,292,_ZNSt17_Function_handlerIFvRKiEZ21testCostruttoriPQHeapIZ6mytestvEUlvE_Z6mytestvEUlvE0_Z6mytestvEUlvE1_EbT_T0_T1_EUlS1_E_E9_M_invokeERKSt9_Any_dataS1_
FN:288,292,_ZNSt17_Function_handlerIFvRKiEZ21testCostruttoriSetLstIZ6mytestvEUlvE_Z6mytestvEUlvE0_Z6mytestvEUlvE1_EbT_T0_T1_EUlS1_E0_E9_M_invokeERKSt9_Any_dataS1_
FN:288,292,_ZNSt17_Function_handlerIFvRKiEZ21testCostruttoriSetLstIZ6mytestvEUlvE_Z6mytestvEUlvE0_Z6mytestvEUlvE1_EbT_T0_T1_EUlS1_E1_E9_M_invokeERKSt9_Any_dataS1_
FN:288,292,_ZNSt17_Function_handlerIFvRKiEZ21testCostruttoriSetLstIZ6mytestvEUlvE_Z6mytestvEUlvE0_Z6mytestvEUlvE1_EbT_T0_T1_EUlS1_E2_E9_M_invokeERKSt9_Any_dataS1_
FN:288,292,_ZNSt17_Function_handlerIFvRKiEZ21testCostruttoriSetLstIZ6mytestvEUlvE_Z6mytestvEUlvE0_Z6mytestvEUlvE1_EbT_T0_T1_EUlS1_E3_E9_M_invokeERKSt9_Any_dataS1_
FN:288,292,_ZNSt17_Function_handlerIFvRKiEZ21testCostruttoriSetLstIZ6mytestvEUlvE_Z6mytestvEUlvE0_Z6mytestvEUlvE1_EbT_T0_T1_EUlS1_E_E9_M_invokeERKSt9_Any_dataS1_
FN:288,292,_ZNSt17_Function_handlerIFvRKiEZ21testCostruttoriSetVecIZ6mytestvEUlvE_Z6mytestvEUlvE0_Z6mytestvEUlvE1_EbT_T0_T1_EUlS1_E0_E9_M_invokeERKSt9_Any_dataS1_
FN:288,292,_ZNSt17_Function_handlerIFvRKiEZ21testCostruttoriSetVecIZ6mytestvEUlvE_Z6mytestvEUlvE0_Z6mytestvEUlvE1_EbT_T0_T1_EUlS1_E1_E9_M_invokeERKSt9_Any_dataS1_
FN:288,292,_ZNSt17_Function_handlerIFvRKiEZ21testCostruttoriSetVecIZ6mytestvEUlvE_Z6mytestvEUlvE0_Z6mytestvEUlvE1_EbT_T0_T1_EUlS1_E2_E9_M_invokeERKSt9_Any_dataS1_
FN:288,292,_ZNSt17_Function_handlerIFvRKiEZ21testCostruttoriSetVecIZ6mytestvEUlvE_Z6mytestvEUlvE0_Z6mytestvEUlvE1_EbT_T0_T1_EUlS1_E3_E9_M_invokeERKSt9_Any_dataS1_
FN:288,292,_ZNSt17_Function_handlerIFvRKiEZ21testCostruttoriSetVecIZ6mytestvEUlvE_Z6mytestvEUlvE0_Z6mytestvEUlvE1_EbT_T0_T1_EUlS1_E_E9_M_invokeERKSt9_Any_dataS1_
FN:288,292,_ZNSt17_Function_handlerIFvRKiEZ21testCostruttoriVectorvEUlS1_E0_E9_M_invokeERKSt9_Any_dataS1_
FN:288,292,_ZNSt17_Function_handlerIFvRKiEZ21testCostruttoriVectorvEUlS1_E1_E9_M_invokeERKSt9_Any_dataS1_
FN:288,292,_ZNSt17_Function_handlerIFvRKiEZ21testCostruttoriVectorvEUlS1_E_E9_M_invokeERKSt9_Any_dataS1_
FN:288,292,_ZNSt17_Function_handlerIFvRKiEZ22testCostruttoriHeapVecIZ6mytestvEUlvE_Z6mytestvEUlvE0_Z6mytestvEUlvE1_EbT_T0_T1_EUlS1_E0_E9_M_invokeERKSt9_Any_dataS1_
FN:288,292,_ZNSt17_Function_handlerIFvRKiEZ22testCostruttoriHeapVecIZ6mytestvEUlvE_Z6mytestvEUlvE0_Z6mytestvEUlvE1_EbT_T0_T1_EUlS1_E1_E9_M_invokeERKSt9_Any_dataS1_
FN:288,292,_ZNSt17_Function_handlerIFvRKiEZ22testCostruttoriHeapVecIZ6mytestvEUlvE_Z6mytestvEUlvE0_Z6mytestvEUlvE1_EbT_T0_T1_EUlS1_E2_E9_M_invokeERKSt9_Any_dataS1_
FN:288,292,_ZNSt17_Function_handlerIFvRKiEZ22testCostruttoriHeapVecIZ6mytestvEUlvE_Z6mytestvEUlvE0_Z6mytestvEUlvE1_EbT_T0_T1_EUlS1_E3_E9_M_invokeERKSt9_Any_dataS1_
FN:288,292,_ZNSt17_Function_handlerIFvRKiEZ22testCostruttoriHeapVecIZ6mytestvEUlvE_Z6mytestvEUlvE0_Z6mytestvEUlvE1_EbT_T0_T1_EUlS1_E_E9_M_invokeERKSt9_Any_dataS1_
FN:288,292,_ZNSt17_Function_handlerIFvRKiEZ27testUlterioriFunzioniVectorIZ6mytestvEUlvE_EbT_EUlS1_E0_E9_M_invokeERKSt9_Any_dataS1_
FN:288,292,_ZNSt17_Function_handlerIFvRKiEZ27testUlterioriFunzioniVectorIZ6mytestvEUlvE_EbT_EUlS1_E1_E9_M_invokeERKSt9_Any_dataS1_
FN:288,292,_ZNSt17_Function_handlerIFvRKiEZ27testUlterioriFunzioniVectorIZ6mytestvEUlvE_EbT_EUlS1_E2_E9_M_invokeERKSt9_Any_dataS1_
FN:288,292,_ZNSt17_Function_handlerIFvRKiEZ27testUlterioriFunzioniVectorIZ6mytestvEUlvE_EbT_EUlS1_E3_E9_M_invokeERKSt9_Any_dataS1_
FN:288,292,_ZNSt17_Function_handlerIFvRKiEZ27testUlterioriFunzioniVectorIZ6mytestvEUlvE_EbT_EUlS1_E4_E9_M_invokeERKSt9_Any_dataS1_
FN:288,292,_ZNSt17_Function_handlerIFvRKiEZ27testUlterioriFunzioniVectorIZ6mytestvEUlvE_EbT_EUlS1_E5_E9_M_invokeERKSt9_Any_dataS1_
FN:288,292,_ZNSt17_Function_handlerIFvRKiEZ27testUlterioriFunzioniVectorIZ6mytestvEUlvE_EbT_EUlS1_E6_E9_M_invokeERKSt9_Any_dataS1_
FN:288,292,_ZNSt17_Function_handlerIFvRKiEZ27testUlterioriFunzioniVectorIZ6mytestvEUlvE_EbT_EUlS1_E7_E9_M_invokeERKSt9_Any_dataS1_
FN:288,292,_ZNSt17_Function_handlerIFvRKiEZ27testUlterioriFunzioniVectorIZ6mytestvEUlvE_EbT_EUlS1_E8_E9_M_invokeERKSt9_Any_dataS1_
FN:288,292,_ZNSt17_Function_handlerIFvRKiEZ27testUlterioriFunzioniVectorIZ6mytestvEUlvE_EbT_EUlS1_E_E9_M_invokeERKSt9_Any_dataS1_
FN:288,292,_ZNSt17_Function_handlerIFvRKiEZN4lasd19DictionaryContainerIiE10InsertSomeERKNS3_20TraversableContainerIiEEEUlS1_E_E9_M_invokeERKSt9_Any_dataS1_
FN:288,292,_ZNSt17_Function_handlerIFvRKiEZN4lasd19DictionaryContainerIiE10RemoveSomeERKNS3_20TraversableContainerIiEEEUlS1_E_E9_M_invokeERKSt9_Any_dataS1_
FN:288,292,_ZNSt17_Function_handlerIFvRKiEZN4lasd19DictionaryContainerIiE9InsertAllERKNS3_20TraversableContainerIiEEEUlS1_E_E9_M_invokeERKSt9_Any_dataS1_
FN:288,292,_ZNSt17_Function_handlerIFvRKiEZN4lasd19DictionaryContainerIiE9RemoveAllERKNS3_20TraversableContainerIiEEEUlS1_E_E9_M_invokeERKSt9_Any_dataS1_
FN:288,292,_ZNSt17_Function_handlerIFvRKiEZN4lasd4ListIiEC4ERKNS3_20TraversableContainerIiEEEUlS1_E_E9_M_invokeERKSt9_Any_dataS1_
FN:288,292,_ZNSt17_Function_handlerIFvRKiEZN4lasd6SetLstIiEC4ERKNS3_20TraversableContainerIiEEEUlS1_E_E9_M_invokeERKSt9_Any_dataS1_
FN:288,292,_ZNSt17_Function_handlerIFvRKiEZN4lasd6SetVecIiEC4ERKNS3_20TraversableContainerIiEEEUlS1_E_E9_M_invokeERKSt9_Any_dataS1_
FN:288,292,_ZNSt17_Function_handlerIFvRKiEZN4lasd6VectorIiEC4ERKNS3_20TraversableContainerIiEEEUlS1_E_E9_M_invokeERKSt9_Any_dataS1_
FN:288,292,_ZNSt17_Function_handlerIFvRKiEZNK4lasd20TraversableContainerIiE6ExistsES1_EUlS1_E_E9_M_invokeERKSt9_Any_dataS1_
FN:288,292,_ZNSt17_Function_handlerIFvRKiEZNK4lasd28PreOrderTraversableContainerIiE12PreOrderFoldIiEET_St8functionIFS7_S1_RKS7_EES7_EUlS1_E_E9_M_invokeERKSt9_Any_dataS1_
FN:288,292,_ZNSt17_Function_handlerIFvRKiEZNK4lasd29PostOrderTraversableContainerIiE13PostOrderFoldIiEET_St8functionIFS7_S1_RKS7_EES7_EUlS1_E_E9_M_invokeERKSt9_Any_dataS1_
FN:288,292,_ZNSt17_Function_handlerIFvRNSt7__cxx1112basic_stringIcSt11char_traitsIcESaIcEEEEZ15stestHeapStringRjS8_EUlS6_E0_E9_M_invokeERKSt9_Any_dataS6_
FN:288,292,_ZNSt17_Function_handlerIFvRNSt7__cxx1112basic_stringIcSt11char_traitsIcESaIcEEEEZ15stestHeapStringRjS8_EUlS6_E_E9_M_invokeERKSt9_Any_dataS6_
FN:288,292,_ZNSt17_Function_handlerIFvRNSt7__cxx1112basic_stringIcSt11char_traitsIcESaIcEEEEZ15stestListStringRjS8_EUlS6_E_E9_M_invokeERKSt9_Any_dataS6_
FN:288,292,_ZNSt17_Function_handlerIFvRNSt7__cxx1112basic_stringIcSt11char_traitsIcESaIcEEEEZ17stestVectorStringRjS8_EUlS6_E0_E9_M_invokeERKSt9_Any_dataS6_
FN:288,292,_ZNSt17_Function_handlerIFvRNSt7__cxx1112basic_stringIcSt11char_traitsIcESaIcEEEEZ17stestVectorStringRjS8_EUlS6_E_E9_M_invokeERKSt9_Any_dataS6_
FN:288,292,_ZNSt17_Function_handlerIFvRNSt7__cxx1112basic_stringIcSt11char_traitsIcESaIcEEEEZN4lasd19DictionaryContainerIS5_E10InsertSomeEONS8_17MappableContainerIS5_EEEUlS6_E_E9_M_invokeERKSt9_Any_dataS6_
FN:288,292,_ZNSt17_Function_handlerIFvRNSt7__cxx1112basic_stringIcSt11char_traitsIcESaIcEEEEZN4lasd19DictionaryContainerIS5_E9InsertAllEONS8_17MappableContainerIS5_EEEUlS6_E_E9_M_invokeERKSt9_Any_dataS6_
FN:288,292,_ZNSt17_Function_handlerIFvRNSt7__cxx1112basic_stringIcSt11char_traitsIcESaIcEEEEZN4lasd4ListIS5_EC4EONS8_17MappableContainerIS5_EEEUlS6_E_E9_M_invokeERKSt9_Any_dataS6_
FN:288,292,_ZNSt17_Function_handlerIFvRNSt7__cxx1112basic_stringIcSt11char_traitsIcESaIcEEEEZN4lasd6SetLstIS5_EC4EONS8_17MappableContainerIS5_EEEUlRKS5_E_E9_M_invokeERKSt9_Any_dataS6_
FN:288,292,_ZNSt17_Function_handlerIFvRNSt7__cxx1112basic_stringIcSt11char_traitsIcESaIcEEEEZN4lasd6SetVecIS5_EC4EONS8_17MappableContainerIS5_EEEUlRKS5_E_E9_M_invokeERKSt9_Any_dataS6_
FN:288,292,_ZNSt17_Function_handlerIFvRNSt7__cxx1112basic_stringIcSt11char_traitsIcESaIcEEEEZN4lasd6VectorIS5_EC4EONS8_17MappableContainerIS5_EEEUlS6_E_E9_M_invokeERKSt9_Any_dataS6_
FN:288,292,_ZNSt17_Function_handlerIFvRdEZN4lasd19DictionaryContainerIdE10InsertSomeEONS2_17MappableContainerIdEEEUlS0_E_E9_M_invokeERKSt9_Any_dataS0_
FN:288,292,_ZNSt17_Function_handlerIFvRdEZN4lasd19DictionaryContainerIdE9InsertAllEONS2_17MappableContainerIdEEEUlS0_E_E9_M_invokeERKSt9_Any_dataS0_
FN:288,292,_ZNSt17_Function_handlerIFvRdEZN4lasd4ListIdEC4EONS2_17MappableContainerIdEEEUlS0_E_E9_M_invokeERKSt9_Any_dataS0_
FN:288,292,_ZNSt17_Function_handlerIFvRdEZN4lasd6SetLstIdEC4EONS2_17MappableContainerIdEEEUlRKdE_E9_M_invokeERKSt9_Any_dataS0_
FN:288,292,_ZNSt17_Function_handlerIFvRdEZN4lasd6SetVecIdEC4EONS2_17MappableContainerIdEEEUlRKdE_E9_M_invokeERKSt9_Any_dataS0_
FN:288,292,_ZNSt17_Function_handlerIFvRdEZN4lasd6VectorIdEC4EONS2_17MappableContainerIdEEEUlS0_E_E9_M_invokeERKSt9_Any_dataS0_
FN:288,292,_ZNSt17_Function_handlerIFvRiEPS1_E9_M_invokeERKSt9_Any_dataS0_
FN:288,292,_ZNSt17_Function_handlerIFvRiEZ16testFunzioniListvEUlS0_E0_E9_M_invokeERKSt9_Any_dataS0_
FN:288,292,_ZNSt17_Function_handlerIFvRiEZ16testFunzioniListvEUlS0_E_E9_M_invokeERKSt9_Any_dataS0_
FN:288,292,_ZNSt17_Function_handlerIFvRiEZ27testUlterioriFunzioniVectorIZ6mytestvEUlvE_EbT_EUlS0_E0_E9_M_invokeERKSt9_Any_dataS0_
FN:288,292,_ZNSt17_Function_handlerIFvRiEZ27testUlterioriFunzioniVectorIZ6mytestvEUlvE_EbT_EUlS0_E_E9_M_invokeERKSt9_Any_dataS0_
FN:288,292,_ZNSt17_Function_handlerIFvRiEZN4lasd19DictionaryContainerIiE10InsertSomeEONS2_17MappableContainerIiEEEUlS0_E_E9_M_invokeERKSt9_Any_dataS0_
FN:288,292,_ZNSt17_Function_handlerIFvRiEZN4lasd19DictionaryContainerIiE9InsertAllEONS2_17MappableContainerIiEEEUlS0_E_E9_M_invokeERKSt9_Any_dataS0_
FN:288,292,_ZNSt17_Function_handlerIFvRiEZN4lasd4ListIiEC4EONS2_17MappableContainerIiEEEUlS0_E_E9_M_invokeERKSt9_Any_dataS0_
FN:288,292,_ZNSt17_Function_handlerIFvRiEZN4lasd6SetLstIiEC4EONS2_17MappableContainerIiEEEUlRKiE_E9_M_invokeERKSt9_Any_dataS0_
FN:288,292,_ZNSt17_Function_handlerIFvRiEZN4lasd6SetVecIiEC4EONS2_17MappableContainerIiEEEUlRKiE_E9_M_invokeERKSt9_Any_dataS0_
FN:288,292,_ZNSt17_Function_handlerIFvRiEZN4lasd6VectorIiEC4EONS2_17MappableContainerIiEEEUlS0_E_E9_M_invokeERKSt9_Any_dataS0_
FN:386,395,_ZNSt8functionIFNSt7__cxx1112basic_stringIcSt11char_traitsIcESaIcEEERKS5_S7_EEC2ERKS9_
FN:386,395,_ZNSt8functionIFdRKdS1_EEC2ERKS3_
FN:386,395,_ZNSt8functionIFiRKiS1_EEC2ERKS3_
FN:386,395,_ZNSt8functionIFvRKNSt7__cxx1112basic_stringIcSt11char_traitsIcESaIcEEEEEC2ERKS9_
FN:386,395,_ZNSt8functionIFvRKdEEC2ERKS3_
FN:386,395,_ZNSt8functionIFvRKiEEC2ERKS3_
FN:386,395,_ZNSt8functionIFvRNSt7__cxx1112basic_stringIcSt11char_traitsIcESaIcEEEEEC2ERKS8_
FN:386,395,_ZNSt8functionIFvRdEEC2ERKS2_
FN:386,395,_ZNSt8functionIFvRiEEC2ERKS2_
FN:435,454,_ZNSt8functionIFvRKNSt7__cxx1112basic_stringIcSt11char_traitsIcESaIcEEEEEC2IZNK4lasd20TraversableContainerIS5_E6ExistsES7_EUlS7_E_vEEOT_
FN:435,454,_ZNSt8functionIFvRKNSt7__cxx1112basic_stringIcSt11char_traitsIcESaIcEEEEEC2IZNK4lasd28PreOrderTraversableContainerIS5_E12PreOrderFoldIS5_EET_S_IFSF_S7_RKSF_EESF_EUlS7_E_vEEOSF_
FN:435,454,_ZNSt8functionIFvRKNSt7__cxx1112basic_stringIcSt11char_traitsIcESaIcEEEEEC2IZNK4lasd29PostOrderTraversableContainerIS5_E13PostOrderFoldIS5_EET_S_IFSF_S7_RKSF_EESF_EUlS7_E_vEEOSF_
FN:435,454,_ZNSt8functionIFvRKdEEC2IZNK4lasd28PreOrderTraversableContainerIdE12PreOrderFoldIdEET_S_IFS9_S1_RKS9_EES9_EUlS1_E_vEEOS9_
FN:435,454,_ZNSt8functionIFvRKdEEC2IZNK4lasd29PostOrderTraversableContainerIdE13PostOrderFoldIdEET_S_IFS9_S1_RKS9_EES9_EUlS1_E_vEEOS9_
FN:435,454,_ZNSt8functionIFvRKiEEC2IZNK4lasd28PreOrderTraversableContainerIiE12PreOrderFoldIiEET_S_IFS9_S1_RKS9_EES9_EUlS1_E_vEEOS9_
FN:435,454,_ZNSt8functionIFvRKiEEC2IZNK4lasd29PostOrderTraversableContainerIiE13PostOrderFoldIiEET_S_IFS9_S1_RKS9_EES9_EUlS1_E_vEEOS9_
FNDA:46,_ZNSt14_Function_base13_Base_managerIZNK4lasd20TraversableContainerINSt7__cxx1112basic_stringIcSt11char_traitsIcESaIcEEEE6ExistsERKS8_EUlSB_E_E9_M_createIRKSC_EEvRSt9_Any_dataOT_St17integral_constantIbLb0EE
FNDA:50,_ZNSt14_Function_base13_Base_managerIZNK4lasd20TraversableContainerINSt7__cxx1112basic_stringIcSt11char_traitsIcESaIcEEEE6ExistsERKS8_EUlSB_E_E9_M_createISC_EEvRSt9_Any_dataOT_St17integral_constantIbLb0EE
FNDA:5,_ZNSt14_Function_base13_Base_managerIZNK4lasd28PreOrderTraversableContainerINSt7__cxx1112basic_stringIcSt11char_traitsIcESaIcEEEE12PreOrderFoldIS8_EET_St8functionIFSB_RKS8_RKSB_EESB_EUlSE_E_E9_M_createIRKSJ_EEvRSt9_Any_dataOSB_St17integral_constantIbLb0EE
FNDA:40,_ZNSt14_Function_base13_Base_managerIZNK4lasd28PreOrderTraversableContainerINSt7__cxx1112basic_stringIcSt11char_traitsIcESaIcEEEE12PreOrderFoldIS8_EET_St8functionIFSB_RKS8_RKSB_EESB_EUlSE_E_E9_M_createISJ_EEvRSt9_Any_dataOSB_St17integral_constantIbLb0EE
FNDA:2,_ZNSt14_Function_base13_Base_managerIZNK4lasd28PreOrderTraversableContainerIdE12PreOrderFoldIdEET_St8functionIFS5_RKdRKS5_EES5_EUlS8_E_E9_M_createIRKSD_EEvRSt9_Any_dataOS5_St17integral_constantIbLb0EE
FNDA:4,_ZNSt14_Function_base13_Base_managerIZNK4lasd28PreOrderTraversableContainerIdE12PreOrderFoldIdEET_St8functionIFS5_RKdRKS5_EES5_EUlS8_E_E9_M_createISD_EEvRSt9_Any_dataOS5_St17integral_constantIbLb0EE
FNDA:8,_ZNSt14_Function_base13_Base_managerIZNK4lasd28PreOrderTraversableContainerIiE12PreOrderFoldIiEET_St8functionIFS5_RKiRKS5_EES5_EUlS8_E_E9_M_createIRKSD_EEvRSt9_Any_dataOS5_St17integral_constantIbLb0EE
FNDA:33,_ZNSt14_Function_base13_Base_managerIZNK4lasd28PreOrderTraversableContainerIiE12PreOrderFoldIiEET_St8functionIFS5_RKiRKS5_EES5_EUlS8_E_E9_M_createISD_EEvRSt9_Any_dataOS5_St17integral_constantIbLb0EE
FNDA:20,_ZNSt14_Function_base13_Base_managerIZNK4lasd29PostOrderTraversableContainerINSt7__cxx1112basic_stringIcSt11char_traitsIcESaIcEEEE13PostOrderFoldIS8_EET_St8functionIFSB_RKS8_RKSB_EESB_EUlSE_E_E9_M_createIRKSJ_EEvRSt9_Any_dataOSB_St17integral_constantIbLb0EE
FNDA:32,_ZNSt14_Function_base13_Base_managerIZNK4lasd29PostOrderTraversableContainerINSt7__cxx1112basic_stringIcSt11char_traitsIcESaIcEEEE13PostOrderFoldIS8_EET_St8functionIFSB_RKS8_RKSB_EESB_EUlSE_E_E9_M_createISJ_EEvRSt9_Any_dataOSB_St17integral_constantIbLb0EE
FNDA:10,_ZNSt14_Function_base13_Base_managerIZNK4lasd29PostOrderTraversableContainerIdE13PostOrderFoldIdEET_St8functionIFS5_RKdRKS5_EES5_EUlS8_E_E9_M_createIRKSD_EEvRSt9_Any_dataOS5_St17integral_constantIbLb0EE
FNDA:4,_ZNSt14_Function_base13_Base_managerIZNK4lasd29PostOrderTraversableContainerIdE13PostOrderFoldIdEET_St8functionIFS5_RKdRKS5_EES5_EUlS8_E_E9_M_createISD_EEvRSt9_Any_dataOS5_St17integral_constantIbLb0EE
FNDA:22,_ZNSt14_Function_base13_Base_managerIZNK4lasd29PostOrderTraversableContainerIiE13PostOrderFoldIiEET_St8functionIFS5_RKiRKS5_EES5_EUlS8_E_E9_M_createIRKSD_EEvRSt9_Any_dataOS5_St17integral_constantIbLb0EE
FNDA:29,_ZNSt14_Function_base13_Base_managerIZNK4lasd29PostOrderTraversableContainerIiE13PostOrderFoldIiEET_St8functionIFS5_RKiRKS5_EES5_EUlS8_E_E9_M_createISD_EEvRSt9_Any_dataOS5_St17integral_constantIbLb0EE
FNDA:92,_ZNSt14_Function_base13_Base_managerIZNK4lasd20TraversableContainerINSt7__cxx1112basic_stringIcSt11char_traitsIcESaIcEEEE6ExistsERKS8_EUlSB_E_E10_M_destroyERSt9_Any_dataSt17integral_constantIbLb0EE
FNDA:28,_ZNSt14_Function_base13_Base_managerIZNK4lasd28PreOrderTraversableContainerINSt7__cxx1112basic_stringIcSt11char_traitsIcESaIcEEEE12PreOrderFoldIS8_EET_St8functionIFSB_RKS8_RKSB_EESB_EUlSE_E_E10_M_destroyERSt9_Any_dataSt17integral_constantIbLb0EE
FNDA:6,_ZNSt14_Function_base13_Base_managerIZNK4lasd28PreOrderTraversableContainerIdE12PreOrderFoldIdEET_St8functionIFS5_RKdRKS5_EES5_EUlS8_E_E10_M_destroyERSt9_Any_dataSt17integral_constantIbLb0EE
FNDA:27,_ZNSt14_Function_base13_Base_managerIZNK4lasd28PreOrderTraversableContainerIiE12PreOrderFoldIiEET_St8functionIFS5_RKiRKS5_EES5_EUlS8_E_E10_M_destroyERSt9_Any_dataSt17integral_constantIbLb0EE
FNDA:39,_ZNSt14_Function_base13_Base_managerIZNK4lasd29PostOrderTraversableContainerINSt7__cxx1112basic_stringIcSt11char_traitsIcESaIcEEEE13PostOrderFoldIS8_EET_St8functionIFSB_RKS8_RKSB_EESB_EUlSE_E_E10_M_destroyERSt9_Any_dataSt17integral_constantIbLb0EE
FNDA:14,_ZNSt14_Function_base13_Base_managerIZNK4lasd29PostOrderTraversableContainerIdE13PostOrderFoldIdEET_St8functionIFS5_RKdRKS5_EES5_EUlS8_E_E10_M_destroyERSt9_Any_dataSt17integral_constantIbLb0EE
FNDA:39,_ZNSt14_Function_base13_Base_managerIZNK4lasd29PostOrderTraversableContainerIiE13PostOrderFoldIiEET_St8functionIFS5_RKiRKS5_EES5_EUlS8_E_E10_M_destroyERSt9_Any_dataSt17integral_constantIbLb0EE
FNDA:138,_ZNSt14_Function_base13_Base_managerIZNK4lasd20TraversableContainerINSt7__cxx1112basic_stringIcSt11char_traitsIcESaIcEEEE6ExistsERKS8_EUlSB_E_E10_M_managerERSt9_Any_dataRKSE_St18_Manager_operation
FNDA:33,_ZNSt14_Function_base13_Base_managerIZNK4lasd28PreOrderTraversableContainerINSt7__cxx1112basic_stringIcSt11char_traitsIcESaIcEEEE12PreOrderFoldIS8_EET_St8functionIFSB_RKS8_RKSB_EESB_EUlSE_E_E10_M_managerERSt9_Any_dataRKSL_St18_Manager_operation
FNDA:8,_ZNSt14_Function_base13_Base_managerIZNK4lasd28PreOrderTraversableContainerIdE12PreOrderFoldIdEET_St8functionIFS5_RKdRKS5_EES5_EUlS8_E_E10_M_managerERSt9_Any_dataRKSF_St18_Manager_operation
FNDA:35,_ZNSt14_Function_base13_Base_managerIZNK4lasd28PreOrderTraversableContainerIiE12PreOrderFoldIiEET_St8functionIFS5_RKiRKS5_EES5_EUlS8_E_E10_M_managerERSt9_Any_dataRKSF_St18_Manager_operation
FNDA:59,_ZNSt14_Function_base13_Base_managerIZNK4lasd29PostOrderTraversableContainerINSt7__cxx1112basic_stringIcSt11char_traitsIcESaIcEEEE13PostOrderFoldIS8_EET_St8functionIFSB_RKS8_RKSB_EESB_EUlSE_E_E10_M_managerERSt9_Any_dataRKSL_St18_Manager_operation
FNDA:24,_ZNSt14_Function_base13_Base_managerIZNK4lasd29PostOrderTraversableContainerIdE13PostOrderFoldIdEET_St8functionIFS5_RKdRKS5_EES5_EUlS8_E_E10_M_managerERSt9_Any_dataRKSF_St18_Manager_operation
FNDA:61,_ZNSt14_Function_base13_Base_managerIZNK4lasd29PostOrderTraversableContainerIiE13PostOrderFoldIiEET_St8functionIFS5_RKiRKS5_EES5_EUlS8_E_E10_M_managerERSt9_Any_dataRKSF_St18_Manager_operation
FNDA:348,_ZNSt17_Function_handlerIFNSt7__cxx1112basic_stringIcSt11char_traitsIcESaIcEEERKS5_S7_EPS8_E10_M_managerERSt9_Any_dataRKSB_St18_Manager_operation
FNDA:15,_ZNSt17_Function_handlerIFNSt7__cxx1112basic_stringIcSt11char_traitsIcESaIcEEERKS5_S7_EZ16testFunzioniListvEUlS7_S7_E0_E10_M_managerERSt9_Any_dataRKSB_St18_Manager_operation
FNDA:5,_ZNSt17_Function_handlerIFNSt7__cxx1112basic_stringIcSt11char_traitsIcESaIcEEERKS5_S7_EZ16testFunzioniListvEUlS7_S7_E_E10_M_managerERSt9_Any_dataRKSB_St18_Manager_operation
FNDA:3,_ZNSt17_Function_handlerIFNSt7__cxx1112basic_stringIcSt11char_traitsIcESaIcEEERKS5_S7_EZ18testFunzioniPQHeapvEUlS7_S7_E0_E10_M_managerERSt9_Any_dataRKSB_St18_Manager_operation
FNDA:3,_ZNSt17_Function_handlerIFNSt7__cxx1112basic_stringIcSt11char_traitsIcESaIcEEERKS5_S7_EZ18testFunzioniPQHeapvEUlS7_S7_E_E10_M_managerERSt9_Any_dataRKSB_St18_Manager_operation
FNDA:13,_ZNSt17_Function_handlerIFNSt7__cxx1112basic_stringIcSt11char_traitsIcESaIcEEERKS5_S7_EZ18testFunzioniSetLstvEUlS7_S7_E0_E10_M_managerERSt9_Any_dataRKSB_St18_Manager_operation
FNDA:5,_ZNSt17_Function_handlerIFNSt7__cxx1112basic_stringIcSt11char_traitsIcESaIcEEERKS5_S7_EZ18testFunzioniSetLstvEUlS7_S7_E_E10_M_managerERSt9_Any_dataRKSB_St18_Manager_operation
FNDA:3,_ZNSt17_Function_handlerIFNSt7__cxx1112basic_stringIcSt11char_traitsIcESaIcEEERKS5_S7_EZ18testFunzioniSetVecvEUlS7_S7_E0_E10_M_managerERSt9_Any_dataRKSB_St18_Manager_operation
FNDA:3,_ZNSt17_Function_handlerIFNSt7__cxx1112basic_stringIcSt11char_traitsIcESaIcEEERKS5_S7_EZ18testFunzioniSetVecvEUlS7_S7_E_E10_M_managerERSt9_Any_dataRKSB_St18_Manager_operation
FNDA:3,_ZNSt17_Function_handlerIFNSt7__cxx1112basic_stringIcSt11char_traitsIcESaIcEEERKS5_S7_EZ19testFunzioniHeapVecvEUlS7_S7_E0_E10_M_managerERSt9_Any_dataRKSB_St18_Manager_operation
FNDA:3,_ZNSt17_Function_handlerIFNSt7__cxx1112basic_stringIcSt11char_traitsIcESaIcEEERKS5_S7_EZ19testFunzioniHeapVecvEUlS7_S7_E_E10_M_managerERSt9_Any_dataRKSB_St18_Manager_operation
FNDA:3,_ZNSt17_Function_handlerIFNSt7__cxx1112basic_stringIcSt11char_traitsIcESaIcEEERKS5_S7_EZ27testUlterioriFunzioniVectorIZ6mytestvEUlvE_EbT_EUlS7_S7_E0_E10_M_managerERSt9_Any_dataRKSE_St18_Manager_operation
FNDA:3,_ZNSt17_Function_handlerIFNSt7__cxx1112basic_stringIcSt11char_traitsIcESaIcEEERKS5_S7_EZ27testUlterioriFunzioniVectorIZ6mytestvEUlvE_EbT_EUlS7_S7_E_E10_M_managerERSt9_Any_dataRKSE_St18_Manager_operation
FNDA:64,_ZNSt17_Function_handlerIFdRKdS1_EPS2_E10_M_managerERSt9_Any_dataRKS5_St18_Manager_operation
FNDA:352,_ZNSt17_Function_handlerIFiRKiS1_EPS2_E10_M_managerERSt9_Any_dataRKS5_St18_Manager_operation
FNDA:15,_ZNSt17_Function_handlerIFiRKiS1_EZ16testFunzioniListvEUlS1_S1_E0_E10_M_managerERSt9_Any_dataRKS5_St18_Manager_operation
FNDA:5,_ZNSt17_Function_handlerIFiRKiS1_EZ16testFunzioniListvEUlS1_S1_E_E10_M_managerERSt9_Any_dataRKS5_St18_Manager_operation
FNDA:3,_ZNSt17_Function_handlerIFiRKiS1_EZ18testFunzioniPQHeapvEUlS1_S1_E0_E10_M_managerERSt9_Any_dataRKS5_St18_Manager_operation
FNDA:3,_ZNSt17_Function_handlerIFiRKiS1_EZ18testFunzioniPQHeapvEUlS1_S1_E_E10_M_managerERSt9_Any_dataRKS5_St18_Manager_operation
FNDA:3,_ZNSt17_Function_handlerIFiRKiS1_EZ18testFunzioniSetVecvEUlS1_S1_E0_E10_M_managerERSt9_Any_dataRKS5_St18_Manager_operation
FNDA:3,_ZNSt17_Function_handlerIFiRKiS1_EZ18testFunzioniSetVecvEUlS1_S1_E_E10_M_managerERSt9_Any_dataRKS5_St18_Manager_operation
FNDA:3,_ZNSt17_Function_handlerIFiRKiS1_EZ19testFunzioniHeapVecvEUlS1_S1_E0_E10_M_managerERSt9_Any_dataRKS5_St18_Manager_operation
FNDA:3,_ZNSt17_Function_handlerIFiRKiS1_EZ19testFunzioniHeapVecvEUlS1_S1_E_E10_M_managerERSt9_Any_dataRKS5_St18_Manager_operation
FNDA:3,_ZNSt17_Function_handlerIFiRKiS1_EZ27testUlterioriFunzioniVectorIZ6mytestvEUlvE_EbT_EUlS1_S1_E0_E10_M_managerERSt9_Any_dataRKS8_St18_Manager_operation
FNDA:3,_ZNSt17_Function_handlerIFiRKiS1_EZ27testUlterioriFunzioniVectorIZ6mytestvEUlvE_EbT_EUlS1_S1_E_E10_M_managerERSt9_Any_dataRKS8_St18_Manager_operation
FNDA:228,_ZNSt17_Function_handlerIFvRKNSt7__cxx1112basic_stringIcSt11char_traitsIcESaIcEEEEPS8_E10_M_managerERSt9_Any_dataRKSB_St18_Manager_operation
FNDA:3,_ZNSt17_Function_handlerIFvRKNSt7__cxx1112basic_stringIcSt11char_traitsIcESaIcEEEEZ19testCostruttoriListvEUlS7_E0_E10_M_managerERSt9_Any_dataRKSB_St18_Manager_operation
FNDA:3,_ZNSt17_Function_handlerIFvRKNSt7__cxx1112basic_stringIcSt11char_traitsIcESaIcEEEEZ19testCostruttoriListvEUlS7_E1_E10_M_managerERSt9_Any_dataRKSB_St18_Manager_operation
FNDA:3,_ZNSt17_Function_handlerIFvRKNSt7__cxx1112basic_stringIcSt11char_traitsIcESaIcEEEEZ19testCostruttoriListvEUlS7_E_E10_M_managerERSt9_Any_dataRKSB_St18_Manager_operation
FNDA:1,_ZNSt17_Function_handlerIFvRKNSt7__cxx1112basic_stringIcSt11char_traitsIcESaIcEEEEZ21testCostruttoriPQHeapIZ6mytestvEUlvE_Z6mytestvEUlvE0_Z6mytestvEUlvE1_EbT_T0_T1_EUlS7_E0_E10_M_managerERSt9_Any_dataRKSI_St18_Manager_operation
FNDA:1,_ZNSt17_Function_handlerIFvRKNSt7__cxx1112basic_stringIcSt11char_traitsIcESaIcEEEEZ21testCostruttoriPQHeapIZ6mytestvEUlvE_Z6mytestvEUlvE0_Z6mytestvEUlvE1_EbT_T0_T1_EUlS7_E1_E10_M_managerERSt9_Any_dataRKSI_St18_Manager_operation
FNDA:1,_ZNSt17_Function_handlerIFvRKNSt7__cxx1112basic_stringIcSt11char_traitsIcESaIcEEEEZ21testCostruttoriPQHeapIZ6mytestvEUlvE_Z6mytestvEUlvE0_Z6mytestvEUlvE1_EbT_T0_T1_EUlS7_E2_E10_M_managerERSt9_Any_dataRKSI_St18_Manager_operation
FNDA:1,_ZNSt17_Function_handlerIFvRKNSt7__cxx1112basic_stringIcSt11char_traitsIcESaIcEEEEZ21testCostruttoriPQHeapIZ6mytestvEUlvE_Z6mytestvEUlvE0_Z6mytestvEUlvE1_EbT_T0_T1_EUlS7_E3_E10_M_managerERSt9_Any_dataRKSI_St18_Manager_operation
FNDA:3,_ZNSt17_Function_handlerIFvRKNSt7__cxx1112basic_stringIcSt11char_traitsIcESaIcEEEEZ21testCostruttoriPQHeapIZ6mytestvEUlvE_Z6mytestvEUlvE0_Z6mytestvEUlvE1_EbT_T0_T1_EUlS7_E_E10_M_managerERSt9_Any_dataRKSI_St18_Manager_operation
FNDA:3,_ZNSt17_Function_handlerIFvRKNSt7__cxx1112basic_stringIcSt11char_traitsIcESaIcEEEEZ21testCostruttoriSetLstIZ6mytestvEUlvE_Z6mytestvEUlvE0_Z6mytestvEUlvE1_EbT_T0_T1_EUlS7_E0_E10_M_managerERSt9_Any_dataRKSI_St18_Manager_operation
FNDA:3,_ZNSt17_Function_handlerIFvRKNSt7__cxx1112basic_stringIcSt11char_traitsIcESaIcEEEEZ21testCostruttoriSetLstIZ6mytestvEUlvE_Z6mytestvEUlvE0_Z6mytestvEUlvE1_EbT_T0_T1_EUlS7_E1_E10_M_managerERSt9_Any_dataRKSI_St18_Manager_operation
FNDA:3,_ZNSt17_Function_handlerIFvRKNSt7__cxx1112basic_stringIcSt11char_traitsIcESaIcEEEEZ21testCostruttoriSetLstIZ6mytestvEUlvE_Z6mytestvEUlvE0_Z6mytestvEUlvE1_EbT_T0_T1_EUlS7_E2_E10_M_managerERSt9_Any_dataRKSI_St18_Manager_operation
FNDA:3,_ZNSt17_Function_handlerIFvRKNSt7__cxx1112basic_stringIcSt11char_traitsIcESaIcEEEEZ21testCostruttoriSetLstIZ6mytestvEUlvE_Z6mytestvEUlvE0_Z6mytestvEUlvE1_EbT_T0_T1_EUlS7_E3_E10_M_managerERSt9_Any_dataRKSI_St18_Manager_operation
FNDA:3,_ZNSt17_Function_handlerIFvRKNSt7__cxx1112basic_stringIcSt11char_traitsIcESaIcEEEEZ21testCostruttoriSetLstIZ6mytestvEUlvE_Z6mytestvEUlvE0_Z6mytestvEUlvE1_EbT_T0_T1_EUlS7_E_E10_M_managerERSt9_Any_dataRKSI_St18_Manager_operation
FNDA:1,_ZNSt17_Function_handlerIFvRKNSt7__cxx1112basic_stringIcSt11char_traitsIcESaIcEEEEZ21testCostruttoriSetVecIZ6mytestvEUlvE_Z6mytestvEUlvE0_Z6mytestvEUlvE1_EbT_T0_T1_EUlS7_E0_E10_M_managerERSt9_Any_dataRKSI_St18_Manager_operation
FNDA:1,_ZNSt17_Function_handlerIFvRKNSt7__cxx1112basic_stringIcSt11char_traitsIcESaIcEEEEZ21testCostruttoriSetVecIZ6mytestvEUlvE_Z6mytestvEUlvE0_Z6mytestvEUlvE1_EbT_T0_T1_EUlS7_E1_E10_M_managerERSt9_Any_dataRKSI_St18_Manager_operation
FNDA:1,_ZNSt17_Function_handlerIFvRKNSt7__cxx1112basic_stringIcSt11char_traitsIcESaIcEEEEZ21testCostruttoriSetVecIZ6mytestvEUlvE_Z6mytestvEUlvE0_Z6mytestvEUlvE1_EbT_T0_T1_EUlS7_E2_E10_M_managerERSt9_Any_dataRKSI_St18_Manager_operation
FNDA:1,_ZNSt17_Function_handlerIFvRKNSt7__cxx1112basic_stringIcSt11char_traitsIcESaIcEEEEZ21testCostruttoriSetVecIZ6mytestvEUlvE_Z6mytestvEUlvE0_Z6mytestvEUlvE1_EbT_T0_T1_EUlS7_E3_E10_M_managerERSt9_Any_dataRKSI_St18_Manager_operation
FNDA:3,_ZNSt17_Function_handlerIFvRKNSt7__cxx1112basic_stringIcSt11char_traitsIcESaIcEEEEZ21testCostruttoriSetVecIZ6mytestvEUlvE_Z6mytestvEUlvE0_Z6mytestvEUlvE1_EbT_T0_T1_EUlS7_E_E10_M_managerERSt9_Any_dataRKSI_St18_Manager_operation
FNDA:1,_ZNSt17_Function_handlerIFvRKNSt7__cxx1112basic_stringIcSt11char_traitsIcESaIcEEEEZ21testCostruttoriVectorvEUlS7_E0_E10_M_managerERSt9_Any_dataRKSB_St18_Manager_operation
FNDA:1,_ZNSt17_Function_handlerIFvRKNSt7__cxx1112basic_stringIcSt11char_traitsIcESaIcEEEEZ21testCostruttoriVectorvEUlS7_E1_E10_M_managerERSt9_Any_dataRKSB_St18_Manager_operation
FNDA:1,_ZNSt17_Function_handlerIFvRKNSt7__cxx1112basic_stringIcSt11char_traitsIcESaIcEEEEZ21testCostruttoriVectorvEUlS7_E_E10_M_managerERSt9_Any_dataRKSB_St18_Manager_operation
FNDA:1,_ZNSt17_Function_handlerIFvRKNSt7__cxx1112basic_stringIcSt11char_traitsIcESaIcEEEEZ22testCostruttoriHeapVecIZ6mytestvEUlvE_Z6mytestvEUlvE0_Z6mytestvEUlvE1_EbT_T0_T1_EUlS7_E0_E10_M_managerERSt9_Any_dataRKSI_St18_Manager_operation
FNDA:1,_ZNSt17_Function_handlerIFvRKNSt7__cxx1112basic_stringIcSt11char_traitsIcESaIcEEEEZ22testCostruttoriHeapVecIZ6mytestvEUlvE_Z6mytestvEUlvE0_Z6mytestvEUlvE1_EbT_T0_T1_EUlS7_E1_E10_M_managerERSt9_Any_dataRKSI_St18_Manager_operation
FNDA:1,_ZNSt17_Function_handlerIFvRKNSt7__cxx1112basic_stringIcSt11char_traitsIcESaIcEEEEZ22testCostruttoriHeapVecIZ6mytestvEUlvE_Z6mytestvEUlvE0_Z6mytestvEUlvE1_EbT_T0_T1_EUlS7_E2_E10_M_managerERSt9_Any_dataRKSI_St18_Manager_operation
FNDA:1,_ZNSt17_Function_handlerIFvRKNSt7__cxx1112basic_stringIcSt11char_traitsIcESaIcEEEEZ22testCostruttoriHeapVecIZ6mytestvEUlvE_Z6mytestvEUlvE0_Z6mytestvEUlvE1_EbT_T0_T1_EUlS7_E3_E10_M_managerERSt9_Any_dataRKSI_St18_Manager_operation
FNDA:3,_ZNSt17_Function_handlerIFvRKNSt7__cxx1112basic_stringIcSt11char_traitsIcESaIcEEEEZ22testCostruttoriHeapVecIZ6mytestvEUlvE_Z6mytestvEUlvE0_Z6mytestvEUlvE1_EbT_T0_T1_EUlS7_E_E10_M_managerERSt9_Any_dataRKSI_St18_Manager_operation
FNDA:0,_ZNSt17_Function_handlerIFvRKNSt7__cxx1112basic_stringIcSt11char_traitsIcESaIcEEEEZN4lasd19DictionaryContainerIS5_E10InsertSomeERKNS9_20TraversableContainerIS5_EEEUlS7_E_E10_M_managerERSt9_Any_dataRKSI_St18_Manager_operation
FNDA:0,_ZNSt17_Function_handlerIFvRKNSt7__cxx1112basic_stringIcSt11char_traitsIcESaIcEEEEZN4lasd19DictionaryContainerIS5_E10RemoveSomeERKNS9_20TraversableContainerIS5_EEEUlS7_E_E10_M_managerERSt9_Any_dataRKSI_St18_Manager_operation
FNDA:0,_ZNSt17_Function_handlerIFvRKNSt7__cxx1112basic_stringIcSt11char_traitsIcESaIcEEEEZN4lasd19DictionaryContainerIS5_E9InsertAllERKNS9_20TraversableContainerIS5_EEEUlS7_E_E10_M_managerERSt9_Any_dataRKSI_St18_Manager_operation
FNDA:0,_ZNSt17_Function_handlerIFvRKNSt7__cxx1112basic_stringIcSt11char_traitsIcESaIcEEEEZN4lasd19DictionaryContainerIS5_E9RemoveAllERKNS9_20TraversableContainerIS5_EEEUlS7_E_E10_M_managerERSt9_Any_dataRKSI_St18_Manager_operation
FNDA:6,_ZNSt17_Function_handlerIFvRKNSt7__cxx1112basic_stringIcSt11char_traitsIcESaIcEEEEZN4lasd4ListIS5_EC4ERKNS9_20TraversableContainerIS5_EEEUlS7_E_E10_M_managerERSt9_Any_dataRKSI_St18_Manager_operation
FNDA:6,_ZNSt17_Function_handlerIFvRKNSt7__cxx1112basic_stringIcSt11char_traitsIcESaIcEEEEZN4lasd6SetLstIS5_EC4ERKNS9_20TraversableContainerIS5_EEEUlS7_E_E10_M_managerERSt9_Any_dataRKSI_St18_Manager_operation
FNDA:6,_ZNSt17_Function_handlerIFvRKNSt7__cxx1112basic_stringIcSt11char_traitsIcESaIcEEEEZN4lasd6SetVecIS5_EC4ERKNS9_20TraversableContainerIS5_EEEUlS7_E_E10_M_managerERSt9_Any_dataRKSI_St18_Manager_operation
FNDA:24,_ZNSt17_Function_handlerIFvRKNSt7__cxx1112basic_stringIcSt11char_traitsIcESaIcEEEEZN4lasd6VectorIS5_EC4ERKNS9_20TraversableContainerIS5_EEEUlS7_E_E10_M_managerERSt9_Any_dataRKSI_St18_Manager_operation
FNDA:138,_ZNSt17_Function_handlerIFvRKNSt7__cxx1112basic_stringIcSt11char_traitsIcESaIcEEEEZNK4lasd20TraversableContainerIS5_E6ExistsES7_EUlS7_E_E10_M_managerERSt9_Any_dataRKSE_St18_Manager_operation
FNDA:33,_ZNSt17_Function_handlerIFvRKNSt7__cxx1112basic_stringIcSt11char_traitsIcESaIcEEEEZNK4lasd28PreOrderTraversableContainerIS5_E12PreOrderFoldIS5_EET_St8functionIFSD_S7_RKSD_EESD_EUlS7_E_E10_M_managerERSt9_Any_dataRKSL_St18_Manager_operation
FNDA:59,_ZNSt17_Function_handlerIFvRKNSt7__cxx1112basic_stringIcSt11char_traitsIcESaIcEEEEZNK4lasd29PostOrderTraversableContainerIS5_E13PostOrderFoldIS5_EET_St8functionIFSD_S7_RKSD_EESD_EUlS7_E_E10_M_managerERSt9_Any_dataRKSL_St18_Manager_operation
FNDA:210,_ZNSt17_Function_handlerIFvRKdEPS2_E10_M_managerERSt9_Any_dataRKS5_St18_Manager_operation
FNDA:3,_ZNSt17_Function_handlerIFvRKdEZ19testCostruttoriListvEUlS1_E0_E10_M_managerERSt9_Any_dataRKS5_St18_Manager_operation
FNDA:3,_ZNSt17_Function_handlerIFvRKdEZ19testCostruttoriListvEUlS1_E1_E10_M_managerERSt9_Any_dataRKS5_St18_Manager_operation
FNDA:3,_ZNSt17_Function_handlerIFvRKdEZ19testCostruttoriListvEUlS1_E_E10_M_managerERSt9_Any_dataRKS5_St18_Manager_operation
FNDA:1,_ZNSt17_Function_handlerIFvRKdEZ21testCostruttoriPQHeapIZ6mytestvEUlvE_Z6mytestvEUlvE0_Z6mytestvEUlvE1_EbT_T0_T1_EUlS1_E0_E10_M_managerERSt9_Any_dataRKSC_St18_Manager_operation
FNDA:1,_ZNSt17_Function_handlerIFvRKdEZ21testCostruttoriPQHeapIZ6mytestvEUlvE_Z6mytestvEUlvE0_Z6mytestvEUlvE1_EbT_T0_T1_EUlS1_E1_E10_M_managerERSt9_Any_dataRKSC_St18_Manager_operation
FNDA:1,_ZNSt17_Function_handlerIFvRKdEZ21testCostruttoriPQHeapIZ6mytestvEUlvE_Z6mytestvEUlvE0_Z6mytestvEUlvE1_EbT_T0_T1_EUlS1_E2_E10_M_managerERSt9_Any_dataRKSC_St18_Manager_operation
FNDA:1,_ZNSt17_Function_handlerIFvRKdEZ21testCostruttoriPQHeapIZ6mytestvEUlvE_Z6mytestvEUlvE0_Z6mytestvEUlvE1_EbT_T0_T1_EUlS1_E3_E10_M_managerERSt9_Any_dataRKSC_St18_Manager_operation
FNDA:3,_ZNSt17_Function_handlerIFvRKdEZ21testCostruttoriPQHeapIZ6mytestvEUlvE_Z6mytestvEUlvE0_Z6mytestvEUlvE1_EbT_T0_T1_EUlS1_E_E10_M_managerERSt9_Any_dataRKSC_St18_Manager_operation
FNDA:3,_ZNSt17_Function_handlerIFvRKdEZ21testCostruttoriSetLstIZ6mytestvEUlvE_Z6mytestvEUlvE0_Z6mytestvEUlvE1_EbT_T0_T1_EUlS1_E0_E10_M_managerERSt9_Any_dataRKSC_St18_Manager_operation
FNDA:3,_ZNSt17_Function_handlerIFvRKdEZ21testCostruttoriSetLstIZ6mytestvEUlvE_Z6mytestvEUlvE0_Z6mytestvEUlvE1_EbT_T0_T1_EUlS1_E1_E10_M_managerERSt9_Any_dataRKSC_St18_Manager_operation
FNDA:3,_ZNSt17_Function_handlerIFvRKdEZ21testCostruttoriSetLstIZ6mytestvEUlvE_Z6mytestvEUlvE0_Z6mytestvEUlvE1_EbT_T0_T1_EUlS1_E2_E10_M_managerERSt9_Any_dataRKSC_St18_Manager_operation
FNDA:3,_ZNSt17_Function_handlerIFvRKdEZ21testCostruttoriSetLstIZ6mytestvEUlvE_Z6mytestvEUlvE0_Z6mytestvEUlvE1_EbT_T0_T1_EUlS1_E3_E10_M_managerERSt9_Any_dataRKSC_St18_Manager_operation
FNDA:3,_ZNSt17_Function_handlerIFvRKdEZ21testCostruttoriSetLstIZ6mytestvEUlvE_Z6mytestvEUlvE0_Z6mytestvEUlvE1_EbT_T0_T1_EUlS1_E_E10_M_managerERSt9_Any_dataRKSC_St18_Manager_operation
FNDA:1,_ZNSt17_Function_handlerIFvRKdEZ21testCostruttoriSetVecIZ6mytestvEUlvE_Z6mytestvEUlvE0_Z6mytestvEUlvE1_EbT_T0_T1_EUlS1_E0_E10_M_managerERSt9_Any_dataRKSC_St18_Manager_operation
FNDA:1,_ZNSt17_Function_handlerIFvRKdEZ21testCostruttoriSetVecIZ6mytestvEUlvE_Z6mytestvEUlvE0_Z6mytestvEUlvE1_EbT_T0_T1_EUlS1_E1_E10_M_managerERSt9_Any_dataRKSC_St18_Manager_operation
FNDA:1,_ZNSt17_Function_handlerIFvRKdEZ21testCostruttoriSetVecIZ6mytestvEUlvE_Z6mytestvEUlvE0_Z6mytestvEUlvE1_EbT_T0_T1_EUlS1_E2_E10_M_managerERSt9_Any_dataRKSC_St18_Manager_operation
FNDA:1,_ZNSt17_Function_handlerIFvRKdEZ21testCostruttoriSetVecIZ6mytestvEUlvE_Z6mytestvEUlvE0_Z6mytestvEUlvE1_EbT_T0_T1_EUlS1_E3_E10_M_managerERSt9_Any_dataRKSC_St18_Manager_operation
FNDA:3,_ZNSt17_Function_handlerIFvRKdEZ21testCostruttoriSetVecIZ6mytestvEUlvE_Z6mytestvEUlvE0_Z6mytestvEUlvE1_EbT_T0_T1_EUlS1_E_E10_M_managerERSt9_Any_dataRKSC_St18_Manager_operation
FNDA:1,_ZNSt17_Function_handlerIFvRKdEZ21testCostruttoriVectorvEUlS1_E0_E10_M_managerERSt9_Any_dataRKS5_St18_Manager_operation
FNDA:1,_ZNSt17_Function_handlerIFvRKdEZ21testCostruttoriVectorvEUlS1_E1_E10_M_managerERSt9_Any_dataRKS5_St18_Manager_operation
FNDA:1,_ZNSt17_Function_handlerIFvRKdEZ21testCostruttoriVectorvEUlS1_E_E10_M_managerERSt9_Any_dataRKS5_St18_Manager_operation
FNDA:1,_ZNSt17_Function_handlerIFvRKdEZ22testCostruttoriHeapVecIZ6mytestvEUlvE_Z6mytestvEUlvE0_Z6mytestvEUlvE1_EbT_T0_T1_EUlS1_E0_E10_M_managerERSt9_Any_dataRKSC_St18_Manager_operation
FNDA:1,_ZNSt17_Function_handlerIFvRKdEZ22testCostruttoriHeapVecIZ6mytestvEUlvE_Z6mytestvEUlvE0_Z6mytestvEUlvE1_EbT_T0_T1_EUlS1_E1_E10_M_managerERSt9_Any_dataRKSC_St18_Manager_operation
FNDA:1,_ZNSt17_Function_handlerIFvRKdEZ22testCostruttoriHeapVecIZ6mytestvEUlvE_Z6mytestvEUlvE0_Z6mytestvEUlvE1_EbT_T0_T1_EUlS1_E2_E10_M_managerERSt9_Any_dataRKSC_St18_Manager_operation
FNDA:1,_ZNSt17_Function_handlerIFvRKdEZ22testCostruttoriHeapVecIZ6mytestvEUlvE_Z6mytestvEUlvE0_Z6mytestvEUlvE1_EbT_T0_T1_EUlS1_E3_E10_M_managerERSt9_Any_dataRKSC_St18_Manager_operation
FNDA:3,_ZNSt17_Function_handlerIFvRKdEZ22testCostruttoriHeapVecIZ6mytestvEUlvE_Z6mytestvEUlvE0_Z6mytestvEUlvE1_EbT_T0_T1_EUlS1_E_E10_M_managerERSt9_Any_dataRKSC_St18_Manager_operation
FNDA:0,_ZNSt17_Function_handlerIFvRKdEZN4lasd19DictionaryContainerIdE10InsertSomeERKNS3_20TraversableContainerIdEEEUlS1_E_E10_M_managerERSt9_Any_dataRKSC_St18_Manager_operation
FNDA:0,_ZNSt17_Function_handlerIFvRKdEZN4lasd19DictionaryContainerIdE10RemoveSomeERKNS3_20TraversableContainerIdEEEUlS1_E_E10_M_managerERSt9_Any_dataRKSC_St18_Manager_operation
FNDA:0,_ZNSt17_Function_handlerIFvRKdEZN4lasd19DictionaryContainerIdE9InsertAllERKNS3_20TraversableContainerIdEEEUlS1_E_E10_M_managerERSt9_Any_dataRKSC_St18_Manager_operation
FNDA:0,_ZNSt17_Function_handlerIFvRKdEZN4lasd19DictionaryContainerIdE9RemoveAllERKNS3_20TraversableContainerIdEEEUlS1_E_E10_M_managerERSt9_Any_dataRKSC_St18_Manager_operation
FNDA:6,_ZNSt17_Function_handlerIFvRKdEZN4lasd4ListIdEC4ERKNS3_20TraversableContainerIdEEEUlS1_E_E10_M_managerERSt9_Any_dataRKSC_St18_Manager_operation
FNDA:6,_ZNSt17_Function_handlerIFvRKdEZN4lasd6SetLstIdEC4ERKNS3_20TraversableContainerIdEEEUlS1_E_E10_M_managerERSt9_Any_dataRKSC_St18_Manager_operation
FNDA:6,_ZNSt17_Function_handlerIFvRKdEZN4lasd6SetVecIdEC4ERKNS3_20TraversableContainerIdEEEUlS1_E_E10_M_managerERSt9_Any_dataRKSC_St18_Manager_operation
FNDA:18,_ZNSt17_Function_handlerIFvRKdEZN4lasd6VectorIdEC4ERKNS3_20TraversableContainerIdEEEUlS1_E_E10_M_managerERSt9_Any_dataRKSC_St18_Manager_operation
FNDA:126,_ZNSt17_Function_handlerIFvRKdEZNK4lasd20TraversableContainerIdE6ExistsES1_EUlS1_E_E10_M_managerERSt9_Any_dataRKS8_St18_Manager_operation
FNDA:8,_ZNSt17_Function_handlerIFvRKdEZNK4lasd28PreOrderTraversableContainerIdE12PreOrderFoldIdEET_St8functionIFS7_S1_RKS7_EES7_EUlS1_E_E10_M_managerERSt9_Any_dataRKSF_St18_Manager_operation
FNDA:24,_ZNSt17_Function_handlerIFvRKdEZNK4lasd29PostOrderTraversableContainerIdE13PostOrderFoldIdEET_St8functionIFS7_S1_RKS7_EES7_EUlS1_E_E10_M_managerERSt9_Any_dataRKSF_St18_Manager_operation
FNDA:740,_ZNSt17_Function_handlerIFvRKiEPS2_E10_M_managerERSt9_Any_dataRKS5_St18_Manager_operation
FNDA:3,_ZNSt17_Function_handlerIFvRKiEZ16testFunzioniListvEUlS1_E0_E10_M_managerERSt9_Any_dataRKS5_St18_Manager_operation
FNDA:3,_ZNSt17_Function_handlerIFvRKiEZ16testFunzioniListvEUlS1_E10_E10_M_managerERSt9_Any_dataRKS5_St18_Manager_operation
FNDA:3,_ZNSt17_Function_handlerIFvRKiEZ16testFunzioniListvEUlS1_E11_E10_M_managerERSt9_Any_dataRKS5_St18_Manager_operation
FNDA:3,_ZNSt17_Function_handlerIFvRKiEZ16testFunzioniListvEUlS1_E1_E10_M_managerERSt9_Any_dataRKS5_St18_Manager_operation
FNDA:3,_ZNSt17_Function_handlerIFvRKiEZ16testFunzioniListvEUlS1_E2_E10_M_managerERSt9_Any_dataRKS5_St18_Manager_operation
FNDA:3,_ZNSt17_Function_handlerIFvRKiEZ16testFunzioniListvEUlS1_E3_E10_M_managerERSt9_Any_dataRKS5_St18_Manager_operation
FNDA:3,_ZNSt17_Function_handlerIFvRKiEZ16testFunzioniListvEUlS1_E4_E10_M_managerERSt9_Any_dataRKS5_St18_Manager_operation
FNDA:3,_ZNSt17_Function_handlerIFvRKiEZ16testFunzioniListvEUlS1_E5_E10_M_managerERSt9_Any_dataRKS5_St18_Manager_operation
FNDA:3,_ZNSt17_Function_handlerIFvRKiEZ16testFunzioniListvEUlS1_E6_E10_M_managerERSt9_Any_dataRKS5_St18_Manager_operation
FNDA:3,_ZNSt17_Function_handlerIFvRKiEZ16testFunzioniListvEUlS1_E7_E10_M_managerERSt9_Any_dataRKS5_St18_Manager_operation
FNDA:3,_ZNSt17_Function_handlerIFvRKiEZ16testFunzioniListvEUlS1_E8_E10_M_managerERSt9_Any_dataRKS5_St18_Manager_operation
FNDA:3,_ZNSt17_Function_handlerIFvRKiEZ16testFunzioniListvEUlS1_E9_E10_M_managerERSt9_Any_dataRKS5_St18_Manager_operation
FNDA:3,_ZNSt17_Function_handlerIFvRKiEZ16testFunzioniListvEUlS1_E_E10_M_managerERSt9_Any_dataRKS5_St18_Manager_operation
FNDA:3,_ZNSt17_Function_handlerIFvRKiEZ18testFunzioniPQHeapvEUlS1_E0_E10_M_managerERSt9_Any_dataRKS5_St18_Manager_operation
FNDA:3,_ZNSt17_Function_handlerIFvRKiEZ18testFunzioniPQHeapvEUlS1_E1_E10_M_managerERSt9_Any_dataRKS5_St18_Manager_operation
FNDA:1,_ZNSt17_Function_handlerIFvRKiEZ18testFunzioniPQHeapvEUlS1_E2_E10_M_managerERSt9_Any_dataRKS5_St18_Manager_operation
FNDA:1,_ZNSt17_Function_handlerIFvRKiEZ18testFunzioniPQHeapvEUlS1_E3_E10_M_managerERSt9_Any_dataRKS5_St18_Manager_operation
FNDA:3,_ZNSt17_Function_handlerIFvRKiEZ18testFunzioniPQHeapvEUlS1_E_E10_M_managerERSt9_Any_dataRKS5_St18_Manager_operation
FNDA:3,_ZNSt17_Function_handlerIFvRKiEZ18testFunzioniSetLstvEUlS1_E0_E10_M_managerERSt9_Any_dataRKS5_St18_Manager_operation
FNDA:3,_ZNSt17_Function_handlerIFvRKiEZ18testFunzioniSetLstvEUlS1_E10_E10_M_managerERSt9_Any_dataRKS5_St18_Manager_operation
FNDA:3,_ZNSt17_Function_handlerIFvRKiEZ18testFunzioniSetLstvEUlS1_E11_E10_M_managerERSt9_Any_dataRKS5_St18_Manager_operation
FNDA:3,_ZNSt17_Function_handlerIFvRKiEZ18testFunzioniSetLstvEUlS1_E12_E10_M_managerERSt9_Any_dataRKS5_St18_Manager_operation
FNDA:3,_ZNSt17_Function_handlerIFvRKiEZ18testFunzioniSetLstvEUlS1_E13_E10_M_managerERSt9_Any_dataRKS5_St18_Manager_operation
FNDA:3,_ZNSt17_Function_handlerIFvRKiEZ18testFunzioniSetLstvEUlS1_E14_E10_M_managerERSt9_Any_dataRKS5_St18_Manager_operation
FNDA:3,_ZNSt17_Function_handlerIFvRKiEZ18testFunzioniSetLstvEUlS1_E15_E10_M_managerERSt9_Any_dataRKS5_St18_Manager_operation
FNDA:3,_ZNSt17_Function_handlerIFvRKiEZ18testFunzioniSetLstvEUlS1_E16_E10_M_managerERSt9_Any_dataRKS5_St18_Manager_operation
FNDA:3,_ZNSt17_Function_handlerIFvRKiEZ18testFunzioniSetLstvEUlS1_E17_E10_M_managerERSt9_Any_dataRKS5_St18_Manager_operation
FNDA:3,_ZNSt17_Function_handlerIFvRKiEZ18testFunzioniSetLstvEUlS1_E18_E10_M_managerERSt9_Any_dataRKS5_St18_Manager_operation
FNDA:3,_ZNSt17_Function_handlerIFvRKiEZ18testFunzioniSetLstvEUlS1_E19_E10_M_managerERSt9_Any_dataRKS5_St18_Manager_operation
FNDA:3,_ZNSt17_Function_handlerIFvRKiEZ18testFunzioniSetLstvEUlS1_E1_E10_M_managerERSt9_Any_dataRKS5_St18_Manager_operation
FNDA:15,_ZNSt17_Function_handlerIFvRKiEZ18testFunzioniSetLstvEUlS1_E20_E10_M_managerERSt9_Any_dataRKS5_St18_Manager_operation
FNDA:3,_ZNSt17_Function_handlerIFvRKiEZ18testFunzioniSetLstvEUlS1_E2_E10_M_managerERSt9_Any_dataRKS5_St18_Manager_operation
FNDA:3,_ZNSt17_Function_handlerIFvRKiEZ18testFunzioniSetLstvEUlS1_E3_E10_M_managerERSt9_Any_dataRKS5_St18_Manager_operation
FNDA:3,_ZNSt17_Function_handlerIFvRKiEZ18testFunzioniSetLstvEUlS1_E4_E10_M_managerERSt9_Any_dataRKS5_St18_Manager_operation
FNDA:3,_ZNSt17_Function_handlerIFvRKiEZ18testFunzioniSetLstvEUlS1_E5_E10_M_managerERSt9_Any_dataRKS5_St18_Manager_operation
FNDA:3,_ZNSt17_Function_handlerIFvRKiEZ18testFunzioniSetLstvEUlS1_E6_E10_M_managerERSt9_Any_dataRKS5_St18_Manager_operation
FNDA:3,_ZNSt17_Function_handlerIFvRKiEZ18testFunzioniSetLstvEUlS1_E7_E10_M_managerERSt9_Any_dataRKS5_St18_Manager_operation
FNDA:3,_ZNSt17_Function_handlerIFvRKiEZ18testFunzioniSetLstvEUlS1_E8_E10_M_managerERSt9_Any_dataRKS5_St18_Manager_operation
FNDA:3,_ZNSt17_Function_handlerIFvRKiEZ18testFunzioniSetLstvEUlS1_E9_E10_M_managerERSt9_Any_dataRKS5_St18_Manager_operation
FNDA:3,_ZNSt17_Function_handlerIFvRKiEZ18testFunzioniSetLstvEUlS1_E_E10_M_managerERSt9_Any_dataRKS5_St18_Manager_operation
FNDA:3,_ZNSt17_Function_handlerIFvRKiEZ18testFunzioniSetVecvEUlS1_E0_E10_M_managerERSt9_Any_dataRKS5_St18_Manager_operation
FNDA:1,_ZNSt17_Function_handlerIFvRKiEZ18testFunzioniSetVecvEUlS1_E10_E10_M_managerERSt9_Any_dataRKS5_St18_Manager_operation
FNDA:1,_ZNSt17_Function_handlerIFvRKiEZ18testFunzioniSetVecvEUlS1_E11_E10_M_managerERSt9_Any_dataRKS5_St18_Manager_operation
FNDA:1,_ZNSt17_Function_handlerIFvRKiEZ18testFunzioniSetVecvEUlS1_E12_E10_M_managerERSt9_Any_dataRKS5_St18_Manager_operation
FNDA:1,_ZNSt17_Function_handlerIFvRKiEZ18testFunzioniSetVecvEUlS1_E13_E10_M_managerERSt9_Any_dataRKS5_St18_Manager_operation
FNDA:1,_ZNSt17_Function_handlerIFvRKiEZ18testFunzioniSetVecvEUlS1_E14_E10_M_managerERSt9_Any_dataRKS5_St18_Manager_operation
FNDA:3,_ZNSt17_Function_handlerIFvRKiEZ18testFunzioniSetVecvEUlS1_E1_E10_M_managerERSt9_Any_dataRKS5_St18_Manager_operation
FNDA:3,_ZNSt17_Function_handlerIFvRKiEZ18testFunzioniSetVecvEUlS1_E2_E10_M_managerERSt9_Any_dataRKS5_St18_Manager_operation
FNDA:1,_ZNSt17_Function_handlerIFvRKiEZ18testFunzioniSetVecvEUlS1_E3_E10_M_managerERSt9_Any_dataRKS5_St18_Manager_operation
FNDA:1,_ZNSt17_Function_handlerIFvRKiEZ18testFunzioniSetVecvEUlS1_E4_E10_M_managerERSt9_Any_dataRKS5_St18_Manager_operation
FNDA:1,_ZNSt17_Function_handlerIFvRKiEZ18testFunzioniSetVecvEUlS1_E5_E10_M_managerERSt9_Any_dataRKS5_St18_Manager_operation
FNDA:1,_ZNSt17_Function_handlerIFvRKiEZ18testFunzioniSetVecvEUlS1_E6_E10_M_managerERSt9_Any_dataRKS5_St18_Manager_operation
FNDA:1,_ZNSt17_Function_handlerIFvRKiEZ18testFunzioniSetVecvEUlS1_E7_E10_M_managerERSt9_Any_dataRKS5_St18_Manager_operation
FNDA:1,_ZNSt17_Function_handlerIFvRKiEZ18testFunzioniSetVecvEUlS1_E8_E10_M_managerERSt9_Any_dataRKS5_St18_Manager_operation
FNDA:1,_ZNSt17_Function_handlerIFvRKiEZ18testFunzioniSetVecvEUlS1_E9_E10_M_managerERSt9_Any_dataRKS5_St18_Manager_operation
FNDA:1,_ZNSt17_Function_handlerIFvRKiEZ18testFunzioniSetVecvEUlS1_E_E10_M_managerERSt9_Any_dataRKS5_St18_Manager_operation
FNDA:1,_ZNSt17_Function_handlerIFvRKiEZ18testFunzioniVectorvEUlS1_E0_E10_M_managerERSt9_Any_dataRKS5_St18_Manager_operation
FNDA:1,_ZNSt17_Function_handlerIFvRKiEZ18testFunzioniVectorvEUlS1_E1_E10_M_managerERSt9_Any_dataRKS5_St18_Manager_operation
FNDA:1,_ZNSt17_Function_handlerIFvRKiEZ18testFunzioniVectorvEUlS1_E2_E10_M_managerERSt9_Any_dataRKS5_St18_Manager_operation
FNDA:1,_ZNSt17_Function_handlerIFvRKiEZ18testFunzioniVectorvEUlS1_E_E10_M_managerERSt9_Any_dataRKS5_St18_Manager_operation
FNDA:3,_ZNSt17_Function_handlerIFvRKiEZ19testCostruttoriListvEUlS1_E0_E10_M_managerERSt9_Any_dataRKS5_St18_Manager_operation
FNDA:3,_ZNSt17_Function_handlerIFvRKiEZ19testCostruttoriListvEUlS1_E1_E10_M_managerERSt9_Any_dataRKS5_St18_Manager_operation
FNDA:3,_ZNSt17_Function_handlerIFvRKiEZ19testCostruttoriListvEUlS1_E_E10_M_managerERSt9_Any_dataRKS5_St18_Manager_operation
FNDA:3,_ZNSt17_Function_handlerIFvRKiEZ19testFunzioniHeapVecvEUlS1_E0_E10_M_managerERSt9_Any_dataRKS5_St18_Manager_operation
FNDA:3,_ZNSt17_Function_handlerIFvRKiEZ19testFunzioniHeapVecvEUlS1_E1_E10_M_managerERSt9_Any_dataRKS5_St18_Manager_operation
FNDA:1,_ZNSt17_Function_handlerIFvRKiEZ19testFunzioniHeapVecvEUlS1_E2_E10_M_managerERSt9_Any_dataRKS5_St18_Manager_operation
FNDA:1,_ZNSt17_Function_handlerIFvRKiEZ19testFunzioniHeapVecvEUlS1_E3_E10_M_managerERSt9_Any_dataRKS5_St18_Manager_operation
FNDA:1,_ZNSt17_Function_handlerIFvRKiEZ19testFunzioniHeapVecvEUlS1_E4_E10_M_managerERSt9_Any_dataRKS5_St18_Manager_operation
FNDA:3,_ZNSt17_Function_handlerIFvRKiEZ19testFunzioniHeapVecvEUlS1_E_E10_M_managerERSt9_Any_dataRKS5_St18_Manager_operation
FNDA:1,_ZNSt17_Function_handlerIFvRKiEZ20testCasiLimitePQHeapvEUlS1_E0_E10_M_managerERSt9_Any_dataRKS5_St18_Manager_operation
FNDA:1,_ZNSt17_Function_handlerIFvRKiEZ20testCasiLimitePQHeapvEUlS1_E_E10_M_managerERSt9_Any_dataRKS5_St18_Manager_operation
FNDA:3,_ZNSt17_Function_handlerIFvRKiEZ20testCasiLimiteSetLstvEUlS1_E0_E10_M_managerERSt9_Any_dataRKS5_St18_Manager_operation
FNDA:3,_ZNSt17_Function_handlerIFvRKiEZ20testCasiLimiteSetLstvEUlS1_E1_E10_M_managerERSt9_Any_dataRKS5_St18_Manager_operation
FNDA:3,_ZNSt17_Function_handlerIFvRKiEZ20testCasiLimiteSetLstvEUlS1_E2_E10_M_managerERSt9_Any_dataRKS5_St18_Manager_operation
FNDA:3,_ZNSt17_Function_handlerIFvRKiEZ20testCasiLimiteSetLstvEUlS1_E3_E10_M_managerERSt9_Any_dataRKS5_St18_Manager_operation
FNDA:3,_ZNSt17_Function_handlerIFvRKiEZ20testCasiLimiteSetLstvEUlS1_E4_E10_M_managerERSt9_Any_dataRKS5_St18_Manager_operation
FNDA:3,_ZNSt17_Function_handlerIFvRKiEZ20testCasiLimiteSetLstvEUlS1_E5_E10_M_managerERSt9_Any_dataRKS5_St18_Manager_operation
FNDA:3,_ZNSt17_Function_handlerIFvRKiEZ20testCasiLimiteSetLstvEUlS1_E6_E10_M_managerERSt9_Any_dataRKS5_St18_Manager_operation
FNDA:3,_ZNSt17_Function_handlerIFvRKiEZ20testCasiLimiteSetLstvEUlS1_E7_E10_M_managerERSt9_Any_dataRKS5_St18_Manager_operation
FNDA:3,_ZNSt17_Function_handlerIFvRKiEZ20testCasiLimiteSetLstvEUlS1_E8_E10_M_managerERSt9_Any_dataRKS5_St18_Manager_operation
FNDA:3,_ZNSt17_Function_handlerIFvRKiEZ20testCasiLimiteSetLstvEUlS1_E_E10_M_managerERSt9_Any_dataRKS5_St18_Manager_operation
FNDA:1,_ZNSt17_Function_handlerIFvRKiEZ20testCasiLimiteSetVecvEUlS1_E0_E10_M_managerERSt9_Any_dataRKS5_St18_Manager_operation
FNDA:1,_ZNSt17_Function_handlerIFvRKiEZ20testCasiLimiteSetVecvEUlS1_E10_E10_M_managerERSt9_Any_dataRKS5_St18_Manager_operation
FNDA:1,_ZNSt17_Function_handlerIFvRKiEZ20testCasiLimiteSetVecvEUlS1_E11_E10_M_managerERSt9_Any_dataRKS5_St18_Manager_operation
FNDA:1,_ZNSt17_Function_handlerIFvRKiEZ20testCasiLimiteSetVecvEUlS1_E12_E10_M_managerERSt9_Any_dataRKS5_St18_Manager_operation
FNDA:1,_ZNSt17_Function_handlerIFvRKiEZ20testCasiLimiteSetVecvEUlS1_E1_E10_M_managerERSt9_Any_dataRKS5_St18_Manager_operation
FNDA:1,_ZNSt17_Function_handlerIFvRKiEZ20testCasiLimiteSetVecvEUlS1_E2_E10_M_managerERSt9_Any_dataRKS5_St18_Manager_operation
FNDA:1,_ZNSt17_Function_handlerIFvRKiEZ20testCasiLimiteSetVecvEUlS1_E3_E10_M_managerERSt9_Any_dataRKS5_St18_Manager_operation
FNDA:1,_ZNSt17_Function_handlerIFvRKiEZ20testCasiLimiteSetVecvEUlS1_E4_E10_M_managerERSt9_Any_dataRKS5_St18_Manager_operation
FNDA:1,_ZNSt17_Function_handlerIFvRKiEZ20testCasiLimiteSetVecvEUlS1_E5_E10_M_managerERSt9_Any_dataRKS5_St18_Manager_operation
FNDA:1,_ZNSt17_Function_handlerIFvRKiEZ20testCasiLimiteSetVecvEUlS1_E6_E10_M_managerERSt9_Any_dataRKS5_St18_Manager_operation
FNDA:1,_ZNSt17_Function_handlerIFvRKiEZ20testCasiLimiteSetVecvEUlS1_E7_E10_M_managerERSt9_Any_dataRKS5_St18_Manager_operation
FNDA:1,_ZNSt17_Function_handlerIFvRKiEZ20testCasiLimiteSetVecvEUlS1_E8_E10_M_managerERSt9_Any_dataRKS5_St18_Manager_operation
FNDA:1,_ZNSt17_Function_handlerIFvRKiEZ20testCasiLimiteSetVecvEUlS1_E9_E10_M_managerERSt9_Any_dataRKS5_St18_Manager_operation
FNDA:1,_ZNSt17_Function_handlerIFvRKiEZ20testCasiLimiteSetVecvEUlS1_E_E10_M_managerERSt9_Any_dataRKS5_St18_Manager_operation
FNDA:1,_ZNSt17_Function_handlerIFvRKiEZ21testCostruttoriPQHeapIZ6mytestvEUlvE_Z6mytestvEUlvE0_Z6mytestvEUlvE1_EbT_T0_T1_EUlS1_E0_E10_M_managerERSt9_Any_dataRKSC_St18_Manager_operation
FNDA:1,_ZNSt17_Function_handlerIFvRKiEZ21testCostruttoriPQHeapIZ6mytestvEUlvE_Z6mytestvEUlvE0_Z6mytestvEUlvE1_EbT_T0_T1_EUlS1_E1_E10_M_managerERSt9_Any_dataRKSC_St18_Manager_operation
FNDA:1,_ZNSt17_Function_handlerIFvRKiEZ21testCostruttoriPQHeapIZ6mytestvEUlvE_Z6mytestvEUlvE0_Z6mytestvEUlvE1_EbT_T0_T1_EUlS1_E2_E10_M_managerERSt9_Any_dataRKSC_St18_Manager_operation
FNDA:1,_ZNSt17_Function_handlerIFvRKiEZ21testCostruttoriPQHeapIZ6mytestvEUlvE_Z6mytestvEUlvE0_Z6mytestvEUlvE1_EbT_T0_T1_EUlS1_E3_E10_M_managerERSt9_Any_dataRKSC_St18_Manager_operation
FNDA:3,_ZNSt17_Function_handlerIFvRKiEZ21testCostruttoriPQHeapIZ6mytestvEUlvE_Z6mytestvEUlvE0_Z6mytestvEUlvE1_EbT_T0_T1_EUlS1_E_E10_M_managerERSt9_Any_dataRKSC_St18_Manager_operation
FNDA:3,_ZNSt17_Function_handlerIFvRKiEZ21testCostruttoriSetLstIZ6mytestvEUlvE_Z6mytestvEUlvE0_Z6mytestvEUlvE1_EbT_T0_T1_EUlS1_E0_E10_M_managerERSt9_Any_dataRKSC_St18_Manager_operation
FNDA:3,_ZNSt17_Function_handlerIFvRKiEZ21testCostruttoriSetLstIZ6mytestvEUlvE_Z6mytestvEUlvE0_Z6mytestvEUlvE1_EbT_T0_T1_EUlS1_E1_E10_M_managerERSt9_Any_dataRKSC_St18_Manager_operation
FNDA:3,_ZNSt17_Function_handlerIFvRKiEZ21testCostruttoriSetLstIZ6mytestvEUlvE_Z6mytestvEUlvE0_Z6mytestvEUlvE1_EbT_T0_T1_EUlS1_E2_E10_M_managerERSt9_Any_dataRKSC_St18_Manager_operation
FNDA:3,_ZNSt17_Function_handlerIFvRKiEZ21testCostruttoriSetLstIZ6mytestvEUlvE_Z6mytestvEUlvE0_Z6mytestvEUlvE1_EbT_T0_T1_EUlS1_E3_E10_M_managerERSt9_Any_dataRKSC_St18_Manager_operation
FNDA:3,_ZNSt17_Function_handlerIFvRKiEZ21testCostruttoriSetLstIZ6mytestvEUlvE_Z6mytestvEUlvE0_Z6mytestvEUlvE1_EbT_T0_T1_EUlS1_E_E10_M_managerERSt9_Any_dataRKSC_St18_Manager_operation
FNDA:1,_ZNSt17_Function_handlerIFvRKiEZ21testCostruttoriSetVecIZ6mytestvEUlvE_Z6mytestvEUlvE0_Z6mytestvEUlvE1_EbT_T0_T1_EUlS1_E0_E10_M_managerERSt9_Any_dataRKSC_St18_Manager_operation
FNDA:1,_ZNSt17_Function_handlerIFvRKiEZ21testCostruttoriSetVecIZ6mytestvEUlvE_Z6mytestvEUlvE0_Z6mytestvEUlvE1_EbT_T0_T1_EUlS1_E1_E10_M_managerERSt9_Any_dataRKSC_St18_Manager_operation
FNDA:1,_ZNSt17_Function_handlerIFvRKiEZ21testCostruttoriSetVecIZ6mytestvEUlvE_Z6mytestvEUlvE0_Z6mytestvEUlvE1_EbT_T0_T1_EUlS1_E2_E10_M_managerERSt9_Any_dataRKSC_St18_Manager_operation
FNDA:1,_ZNSt17_Function_handlerIFvRKiEZ21testCostruttoriSetVecIZ6mytestvEUlvE_Z6mytestvEUlvE0_Z6mytestvEUlvE1_EbT_T0_T1_EUlS1_E3_E10_M_managerERSt9_Any_dataRKSC_St18_Manager_operation
FNDA:3,_ZNSt17_Function_handlerIFvRKiEZ21testCostruttoriSetVecIZ6mytestvEUlvE_Z6mytestvEUlvE0_Z6mytestvEUlvE1_EbT_T0_T1_EUlS1_E_E10_M_managerERSt9_Any_dataRKSC_St18_Manager_operation
FNDA:1,_ZNSt17_Function_handlerIFvRKiEZ21testCostruttoriVectorvEUlS1_E0_E10_M_managerERSt9_Any_dataRKS5_St18_Manager_operation
FNDA:1,_ZNSt17_Function_handlerIFvRKiEZ21testCostruttoriVectorvEUlS1_E1_E10_M_managerERSt9_Any_dataRKS5_St18_Manager_operation
FNDA:1,_ZNSt17_Function_handlerIFvRKiEZ21testCostruttoriVectorvEUlS1_E_E10_M_managerERSt9_Any_dataRKS5_St18_Manager_operation
FNDA:1,_ZNSt17_Function_handlerIFvRKiEZ22testCostruttoriHeapVecIZ6mytestvEUlvE_Z6mytestvEUlvE0_Z6mytestvEUlvE1_EbT_T0_T1_EUlS1_E0_E10_M_managerERSt9_Any_dataRKSC_St18_Manager_operation
FNDA:1,_ZNSt17_Function_handlerIFvRKiEZ22testCostruttoriHeapVecIZ6mytestvEUlvE_Z6mytestvEUlvE0_Z6mytestvEUlvE1_EbT_T0_T1_EUlS1_E1_E10_M_managerERSt9_Any_dataRKSC_St18_Manager_operation
FNDA:1,_ZNSt17_Function_handlerIFvRKiEZ22testCostruttoriHeapVecIZ6mytestvEUlvE_Z6mytestvEUlvE0_Z6mytestvEUlvE1_EbT_T0_T1_EUlS1_E2_E10_M_managerERSt9_Any_dataRKSC_St18_Manager_operation
FNDA:1,_ZNSt17_Function_handlerIFvRKiEZ22testCostruttoriHeapVecIZ6mytestvEUlvE_Z6mytestvEUlvE0_Z6mytestvEUlvE1_EbT_T0_T1_EUlS1_E3_E10_M_managerERSt9_Any_dataRKSC_St18_Manager_operation
FNDA:3,_ZNSt17_Function_handlerIFvRKiEZ22testCostruttoriHeapVecIZ6mytestvEUlvE_Z6mytestvEUlvE0_Z6mytestvEUlvE1_EbT_T0_T1_EUlS1_E_E10_M_managerERSt9_Any_dataRKSC_St18_Manager_operation
FNDA:1,_ZNSt17_Function_handlerIFvRKiEZ27testUlterioriFunzioniVectorIZ6mytestvEUlvE_EbT_EUlS1_E0_E10_M_managerERSt9_Any_dataRKS8_St18_Manager_operation
FNDA:1,_ZNSt17_Function_handlerIFvRKiEZ27testUlterioriFunzioniVectorIZ6mytestvEUlvE_EbT_EUlS1_E1_E10_M_managerERSt9_Any_dataRKS8_St18_Manager_operation
FNDA:1,_ZNSt17_Function_handlerIFvRKiEZ27testUlterioriFunzioniVectorIZ6mytestvEUlvE_EbT_EUlS1_E2_E10_M_managerERSt9_Any_dataRKS8_St18_Manager_operation
FNDA:1,_ZNSt17_Function_handlerIFvRKiEZ27testUlterioriFunzioniVectorIZ6mytestvEUlvE_EbT_EUlS1_E3_E10_M_managerERSt9_Any_dataRKS8_St18_Manager_operation
FNDA:1,_ZNSt17_Function_handlerIFvRKiEZ27testUlterioriFunzioniVectorIZ6mytestvEUlvE_EbT_EUlS1_E4_E10_M_managerERSt9_Any_dataRKS8_St18_Manager_operation
FNDA:1,_ZNSt17_Function_handlerIFvRKiEZ27testUlterioriFunzioniVectorIZ6mytestvEUlvE_EbT_EUlS1_E5_E10_M_managerERSt9_Any_dataRKS8_St18_Manager_operation
FNDA:1,_ZNSt17_Function_handlerIFvRKiEZ27testUlterioriFunzioniVectorIZ6mytestvEUlvE_EbT_EUlS1_E6_E10_M_managerERSt9_Any_dataRKS8_St18_Manager_operation
FNDA:3,_ZNSt17_Function_handlerIFvRKiEZ27testUlterioriFunzioniVectorIZ6mytestvEUlvE_EbT_EUlS1_E7_E10_M_managerERSt9_Any_dataRKS8_St18_Manager_operation
FNDA:1,_ZNSt17_Function_handlerIFvRKiEZ27testUlterioriFunzioniVectorIZ6mytestvEUlvE_EbT_EUlS1_E8_E10_M_managerERSt9_Any_dataRKS8_St18_Manager_operation
FNDA:1,_ZNSt17_Function_handlerIFvRKiEZ27testUlterioriFunzioniVectorIZ6mytestvEUlvE_EbT_EUlS1_E_E10_M_managerERSt9_Any_dataRKS8_St18_Manager_operation
FNDA:3,_ZNSt17_Function_handlerIFvRKiEZN4lasd19DictionaryContainerIiE10InsertSomeERKNS3_20TraversableContainerIiEEEUlS1_E_E10_M_managerERSt9_Any_dataRKSC_St18_Manager_operation
FNDA:0,_ZNSt17_Function_handlerIFvRKiEZN4lasd19DictionaryContainerIiE10RemoveSomeERKNS3_20TraversableContainerIiEEEUlS1_E_E10_M_managerERSt9_Any_dataRKSC_St18_Manager_operation
FNDA:9,_ZNSt17_Function_handlerIFvRKiEZN4lasd19DictionaryContainerIiE9InsertAllERKNS3_20TraversableContainerIiEEEUlS1_E_E10_M_managerERSt9_Any_dataRKSC_St18_Manager_operation
FNDA:3,_ZNSt17_Function_handlerIFvRKiEZN4lasd19DictionaryContainerIiE9RemoveAllERKNS3_20TraversableContainerIiEEEUlS1_E_E10_M_managerERSt9_Any_dataRKSC_St18_Manager_operation
FNDA:9,_ZNSt17_Function_handlerIFvRKiEZN4lasd4ListIiEC4ERKNS3_20TraversableContainerIiEEEUlS1_E_E10_M_managerERSt9_Any_dataRKSC_St18_Manager_operation
FNDA:6,_ZNSt17_Function_handlerIFvRKiEZN4lasd6SetLstIiEC4ERKNS3_20TraversableContainerIiEEEUlS1_E_E10_M_managerERSt9_Any_dataRKSC_St18_Manager_operation
FNDA:6,_ZNSt17_Function_handlerIFvRKiEZN4lasd6SetVecIiEC4ERKNS3_20TraversableContainerIiEEEUlS1_E_E10_M_managerERSt9_Any_dataRKSC_St18_Manager_operation
FNDA:36,_ZNSt17_Function_handlerIFvRKiEZN4lasd6VectorIiEC4ERKNS3_20TraversableContainerIiEEEUlS1_E_E10_M_managerERSt9_Any_dataRKSC_St18_Manager_operation
FNDA:216,_ZNSt17_Function_handlerIFvRKiEZNK4lasd20TraversableContainerIiE6ExistsES1_EUlS1_E_E10_M_managerERSt9_Any_dataRKS8_St18_Manager_operation
FNDA:35,_ZNSt17_Function_handlerIFvRKiEZNK4lasd28PreOrderTraversableContainerIiE12PreOrderFoldIiEET_St8functionIFS7_S1_RKS7_EES7_EUlS1_E_E10_M_managerERSt9_Any_dataRKSF_St18_Manager_operation
FNDA:61,_ZNSt17_Function_handlerIFvRKiEZNK4lasd29PostOrderTraversableContainerIiE13PostOrderFoldIiEET_St8functionIFS7_S1_RKS7_EES7_EUlS1_E_E10_M_managerERSt9_Any_dataRKSF_St18_Manager_operation
FNDA:6,_ZNSt17_Function_handlerIFvRNSt7__cxx1112basic_stringIcSt11char_traitsIcESaIcEEEEZ15stestHeapStringRjS8_EUlS6_E0_E10_M_managerERSt9_Any_dataRKSB_St18_Manager_operation
FNDA:6,_ZNSt17_Function_handlerIFvRNSt7__cxx1112basic_stringIcSt11char_traitsIcESaIcEEEEZ15stestHeapStringRjS8_EUlS6_E_E10_M_managerERSt9_Any_dataRKSB_St18_Manager_operation
FNDA:10,_ZNSt17_Function_handlerIFvRNSt7__cxx1112basic_stringIcSt11char_traitsIcESaIcEEEEZ15stestListStringRjS8_EUlS6_E_E10_M_managerERSt9_Any_dataRKSB_St18_Manager_operation
FNDA:6,_ZNSt17_Function_handlerIFvRNSt7__cxx1112basic_stringIcSt11char_traitsIcESaIcEEEEZ17stestVectorStringRjS8_EUlS6_E0_E10_M_managerERSt9_Any_dataRKSB_St18_Manager_operation
FNDA:6,_ZNSt17_Function_handlerIFvRNSt7__cxx1112basic_stringIcSt11char_traitsIcESaIcEEEEZ17stestVectorStringRjS8_EUlS6_E_E10_M_managerERSt9_Any_dataRKSB_St18_Manager_operation
FNDA:0,_ZNSt17_Function_handlerIFvRNSt7__cxx1112basic_stringIcSt11char_traitsIcESaIcEEEEZN4lasd19DictionaryContainerIS5_E10InsertSomeEONS8_17MappableContainerIS5_EEEUlS6_E_E10_M_managerERSt9_Any_dataRKSG_St18_Manager_operation
FNDA:0,_ZNSt17_Function_handlerIFvRNSt7__cxx1112basic_stringIcSt11char_traitsIcESaIcEEEEZN4lasd19DictionaryContainerIS5_E9InsertAllEONS8_17MappableContainerIS5_EEEUlS6_E_E10_M_managerERSt9_Any_dataRKSG_St18_Manager_operation
FNDA:6,_ZNSt17_Function_handlerIFvRNSt7__cxx1112basic_stringIcSt11char_traitsIcESaIcEEEEZN4lasd4ListIS5_EC4EONS8_17MappableContainerIS5_EEEUlS6_E_E10_M_managerERSt9_Any_dataRKSG_St18_Manager_operation
FNDA:3,_ZNSt17_Function_handlerIFvRNSt7__cxx1112basic_stringIcSt11char_traitsIcESaIcEEEEZN4lasd6SetLstIS5_EC4EONS8_17MappableContainerIS5_EEEUlRKS5_E_E10_M_managerERSt9_Any_dataRKSI_St18_Manager_operation
FNDA:3,_ZNSt17_Function_handlerIFvRNSt7__cxx1112basic_stringIcSt11char_traitsIcESaIcEEEEZN4lasd6SetVecIS5_EC4EONS8_17MappableContainerIS5_EEEUlRKS5_E_E10_M_managerERSt9_Any_dataRKSI_St18_Manager_operation
FNDA:12,_ZNSt17_Function_handlerIFvRNSt7__cxx1112basic_stringIcSt11char_traitsIcESaIcEEEEZN4lasd6VectorIS5_EC4EONS8_17MappableContainerIS5_EEEUlS6_E_E10_M_managerERSt9_Any_dataRKSG_St18_Manager_operation
FNDA:0,_ZNSt17_Function_handlerIFvRdEZN4lasd19DictionaryContainerIdE10InsertSomeEONS2_17MappableContainerIdEEEUlS0_E_E10_M_managerERSt9_Any_dataRKSA_St18_Manager_operation
FNDA:0,_ZNSt17_Function_handlerIFvRdEZN4lasd19DictionaryContainerIdE9InsertAllEONS2_17MappableContainerIdEEEUlS0_E_E10_M_managerERSt9_Any_dataRKSA_St18_Manager_operation
FNDA:3,_ZNSt17_Function_handlerIFvRdEZN4lasd4ListIdEC4EONS2_17MappableContainerIdEEEUlS0_E_E10_M_managerERSt9_Any_dataRKSA_St18_Manager_operation
FNDA:3,_ZNSt17_Function_handlerIFvRdEZN4lasd6SetLstIdEC4EONS2_17MappableContainerIdEEEUlRKdE_E10_M_managerERSt9_Any_dataRKSC_St18_Manager_operation
FNDA:3,_ZNSt17_Function_handlerIFvRdEZN4lasd6SetVecIdEC4EONS2_17MappableContainerIdEEEUlRKdE_E10_M_managerERSt9_Any_dataRKSC_St18_Manager_operation
FNDA:9,_ZNSt17_Function_handlerIFvRdEZN4lasd6VectorIdEC4EONS2_17MappableContainerIdEEEUlS0_E_E10_M_managerERSt9_Any_dataRKSA_St18_Manager_operation
FNDA:44,_ZNSt17_Function_handlerIFvRiEPS1_E10_M_managerERSt9_Any_dataRKS4_St18_Manager_operation
FNDA:13,_ZNSt17_Function_handlerIFvRiEZ16testFunzioniListvEUlS0_E0_E10_M_managerERSt9_Any_dataRKS4_St18_Manager_operation
FNDA:3,_ZNSt17_Function_handlerIFvRiEZ16testFunzioniListvEUlS0_E_E10_M_managerERSt9_Any_dataRKS4_St18_Manager_operation
FNDA:1,_ZNSt17_Function_handlerIFvRiEZ27testUlterioriFunzioniVectorIZ6mytestvEUlvE_EbT_EUlS0_E0_E10_M_managerERSt9_Any_dataRKS7_St18_Manager_operation
FNDA:1,_ZNSt17_Function_handlerIFvRiEZ27testUlterioriFunzioniVectorIZ6mytestvEUlvE_EbT_EUlS0_E_E10_M_managerERSt9_Any_dataRKS7_St18_Manager_operation
FNDA:0,_ZNSt17_Function_handlerIFvRiEZN4lasd19DictionaryContainerIiE10InsertSomeEONS2_17MappableContainerIiEEEUlS0_E_E10_M_managerERSt9_Any_dataRKSA_St18_Manager_operation
FNDA:0,_ZNSt17_Function_handlerIFvRiEZN4lasd19DictionaryContainerIiE9InsertAllEONS2_17MappableContainerIiEEEUlS0_E_E10_M_managerERSt9_Any_dataRKSA_St18_Manager_operation
FNDA:3,_ZNSt17_Function_handlerIFvRiEZN4lasd4ListIiEC4EONS2_17MappableContainerIiEEEUlS0_E_E10_M_managerERSt9_Any_dataRKSA_St18_Manager_operation
FNDA:3,_ZNSt17_Function_handlerIFvRiEZN4lasd6SetLstIiEC4EONS2_17MappableContainerIiEEEUlRKiE_E10_M_managerERSt9_Any_dataRKSC_St18_Manager_operation
FNDA:3,_ZNSt17_Function_handlerIFvRiEZN4lasd6SetVecIiEC4EONS2_17MappableContainerIiEEEUlRKiE_E10_M_managerERSt9_Any_dataRKSC_St18_Manager_operation
FNDA:9,_ZNSt17_Function_handlerIFvRiEZN4lasd6VectorIiEC4EONS2_17MappableContainerIiEEEUlS0_E_E10_M_managerERSt9_Any_dataRKSA_St18_Manager_operation
FNDA:534,_ZNSt17_Function_handlerIFNSt7__cxx1112basic_stringIcSt11char_traitsIcESaIcEEERKS5_S7_EPS8_E9_M_invokeERKSt9_Any_dataS7_S7_
FNDA:5,_ZNSt17_Function_handlerIFNSt7__cxx1112basic_stringIcSt11char_traitsIcESaIcEEERKS5_S7_EZ16testFunzioniListvEUlS7_S7_E0_E9_M_invokeERKSt9_Any_dataS7_S7_
FNDA:5,_ZNSt17_Function_handlerIFNSt7__cxx1112basic_stringIcSt11char_traitsIcESaIcEEERKS5_S7_EZ16testFunzioniListvEUlS7_S7_E_E9_M_invokeERKSt9_Any_dataS7_S7_
FNDA:5,_ZNSt17_Function_handlerIFNSt7__cxx1112basic_stringIcSt11char_traitsIcESaIcEEERKS5_S7_EZ18testFunzioniPQHeapvEUlS7_S7_E0_E9_M_invokeERKSt9_Any_dataS7_S7_
FNDA:5,_ZNSt17_Function_handlerIFNSt7__cxx1112basic_stringIcSt11char_traitsIcESaIcEEERKS5_S7_EZ18testFunzioniPQHeapvEUlS7_S7_E_E9_M_invokeERKSt9_Any_dataS7_S7_
FNDA:4,_ZNSt17_Function_handlerIFNSt7__cxx1112basic_stringIcSt11char_traitsIcESaIcEEERKS5_S7_EZ18testFunzioniSetLstvEUlS7_S7_E0_E9_M_invokeERKSt9_Any_dataS7_S7_
FNDA:4,_ZNSt17_Function_handlerIFNSt7__cxx1112basic_stringIcSt11char_traitsIcESaIcEEERKS5_S7_EZ18testFunzioniSetLstvEUlS7_S7_E_E9_M_invokeERKSt9_Any_dataS7_S7_
FNDA:5,_ZNSt17_Function_handlerIFNSt7__cxx1112basic_stringIcSt11char_traitsIcESaIcEEERKS5_S7_EZ18testFunzioniSetVecvEUlS7_S7_E0_E9_M_invokeERKSt9_Any_dataS7_S7_
FNDA:5,_ZNSt17_Function_handlerIFNSt7__cxx1112basic_stringIcSt11char_traitsIcESaIcEEERKS5_S7_EZ18testFunzioniSetVecvEUlS7_S7_E_E9_M_invokeERKSt9_Any_dataS7_S7_
FNDA:5,_ZNSt17_Function_handlerIFNSt7__cxx1112basic_stringIcSt11char_traitsIcESaIcEEERKS5_S7_EZ19testFunzioniHeapVecvEUlS7_S7_E0_E9_M_invokeERKSt9_Any_dataS7_S7_
FNDA:5,_ZNSt17_Function_handlerIFNSt7__cxx1112basic_stringIcSt11char_traitsIcESaIcEEERKS5_S7_EZ19testFunzioniHeapVecvEUlS7_S7_E_E9_M_invokeERKSt9_Any_dataS7_S7_
FNDA:5,_ZNSt17_Function_handlerIFNSt7__cxx1112basic_stringIcSt11char_traitsIcESaIcEEERKS5_S7_EZ27testUlterioriFunzioniVectorIZ6mytestvEUlvE_EbT_EUlS7_S7_E0_E9_M_invokeERKSt9_Any_dataS7_S7_
FNDA:5,_ZNSt17_Function_handlerIFNSt7__cxx1112basic_stringIcSt11char_traitsIcESaIcEEERKS5_S7_EZ27testUlterioriFunzioniVectorIZ6mytestvEUlvE_EbT_EUlS7_S7_E_E9_M_invokeERKSt9_Any_dataS7_S7_
FNDA:28,_ZNSt17_Function_handlerIFdRKdS1_EPS2_E9_M_invokeERKSt9_Any_dataS1_S1_
FNDA:314,_ZNSt17_Function_handlerIFiRKiS1_EPS2_E9_M_invokeERKSt9_Any_dataS1_S1_
FNDA:5,_ZNSt17_Function_handlerIFiRKiS1_EZ16testFunzioniListvEUlS1_S1_E0_E9_M_invokeERKSt9_Any_dataS1_S1_
FNDA:5,_ZNSt17_Function_handlerIFiRKiS1_EZ16testFunzioniListvEUlS1_S1_E_E9_M_invokeERKSt9_Any_dataS1_S1_
FNDA:7,_ZNSt17_Function_handlerIFiRKiS1_EZ18testFunzioniPQHeapvEUlS1_S1_E0_E9_M_invokeERKSt9_Any_dataS1_S1_
FNDA:7,_ZNSt17_Function_handlerIFiRKiS1_EZ18testFunzioniPQHeapvEUlS1_S1_E_E9_M_invokeERKSt9_Any_dataS1_S1_
FNDA:4,_ZNSt17_Function_handlerIFiRKiS1_EZ18testFunzioniSetVecvEUlS1_S1_E0_E9_M_invokeERKSt9_Any_dataS1_S1_
FNDA:4,_ZNSt17_Function_handlerIFiRKiS1_EZ18testFunzioniSetVecvEUlS1_S1_E_E9_M_invokeERKSt9_Any_dataS1_S1_
FNDA:7,_ZNSt17_Function_handlerIFiRKiS1_EZ19testFunzioniHeapVecvEUlS1_S1_E0_E9_M_invokeERKSt9_Any_dataS1_S1_
FNDA:7,_ZNSt17_Function_handlerIFiRKiS1_EZ19testFunzioniHeapVecvEUlS1_S1_E_E9_M_invokeERKSt9_Any_dataS1_S1_
FNDA:5,_ZNSt17_Function_handlerIFiRKiS1_EZ27testUlterioriFunzioniVectorIZ6mytestvEUlvE_EbT_EUlS1_S1_E0_E9_M_invokeERKSt9_Any_dataS1_S1_
FNDA:5,_ZNSt17_Function_handlerIFiRKiS1_EZ27testUlterioriFunzioniVectorIZ6mytestvEUlvE_EbT_EUlS1_S1_E_E9_M_invokeERKSt9_Any_dataS1_S1_
FNDA:644,_ZNSt17_Function_handlerIFvRKNSt7__cxx1112basic_stringIcSt11char_traitsIcESaIcEEEEPS8_E9_M_invokeERKSt9_Any_dataS7_
FNDA:5,_ZNSt17_Function_handlerIFvRKNSt7__cxx1112basic_stringIcSt11char_traitsIcESaIcEEEEZ19testCostruttoriListvEUlS7_E0_E9_M_invokeERKSt9_Any_dataS7_
FNDA:5,_ZNSt17_Function_handlerIFvRKNSt7__cxx1112basic_stringIcSt11char_traitsIcESaIcEEEEZ19testCostruttoriListvEUlS7_E1_E9_M_invokeERKSt9_Any_dataS7_
FNDA:5,_ZNSt17_Function_handlerIFvRKNSt7__cxx1112basic_stringIcSt11char_traitsIcESaIcEEEEZ19testCostruttoriListvEUlS7_E_E9_M_invokeERKSt9_Any_dataS7_
FNDA:5,_ZNSt17_Function_handlerIFvRKNSt7__cxx1112basic_stringIcSt11char_traitsIcESaIcEEEEZ21testCostruttoriPQHeapIZ6mytestvEUlvE_Z6mytestvEUlvE0_Z6mytestvEUlvE1_EbT_T0_T1_EUlS7_E0_E9_M_invokeERKSt9_Any_dataS7_
FNDA:5,_ZNSt17_Function_handlerIFvRKNSt7__cxx1112basic_stringIcSt11char_traitsIcESaIcEEEEZ21testCostruttoriPQHeapIZ6mytestvEUlvE_Z6mytestvEUlvE0_Z6mytestvEUlvE1_EbT_T0_T1_EUlS7_E1_E9_M_invokeERKSt9_Any_dataS7_
FNDA:5,_ZNSt17_Function_handlerIFvRKNSt7__cxx1112basic_stringIcSt11char_traitsIcESaIcEEEEZ21testCostruttoriPQHeapIZ6mytestvEUlvE_Z6mytestvEUlvE0_Z6mytestvEUlvE1_EbT_T0_T1_EUlS7_E2_E9_M_invokeERKSt9_Any_dataS7_
FNDA:5,_ZNSt17_Function_handlerIFvRKNSt7__cxx1112basic_stringIcSt11char_traitsIcESaIcEEEEZ21testCostruttoriPQHeapIZ6mytestvEUlvE_Z6mytestvEUlvE0_Z6mytestvEUlvE1_EbT_T0_T1_EUlS7_E3_E9_M_invokeERKSt9_Any_dataS7_
FNDA:5,_ZNSt17_Function_handlerIFvRKNSt7__cxx1112basic_stringIcSt11char_traitsIcESaIcEEEEZ21testCostruttoriPQHeapIZ6mytestvEUlvE_Z6mytestvEUlvE0_Z6mytestvEUlvE1_EbT_T0_T1_EUlS7_E_E9_M_invokeERKSt9_Any_dataS7_
FNDA:5,_ZNSt17_Function_handlerIFvRKNSt7__cxx1112basic_stringIcSt11char_traitsIcESaIcEEEEZ21testCostruttoriSetLstIZ6mytestvEUlvE_Z6mytestvEUlvE0_Z6mytestvEUlvE1_EbT_T0_T1_EUlS7_E0_E9_M_invokeERKSt9_Any_dataS7_
FNDA:5,_ZNSt17_Function_handlerIFvRKNSt7__cxx1112basic_stringIcSt11char_traitsIcESaIcEEEEZ21testCostruttoriSetLstIZ6mytestvEUlvE_Z6mytestvEUlvE0_Z6mytestvEUlvE1_EbT_T0_T1_EUlS7_E1_E9_M_invokeERKSt9_Any_dataS7_
FNDA:5,_ZNSt17_Function_handlerIFvRKNSt7__cxx1112basic_stringIcSt11char_traitsIcESaIcEEEEZ21testCostruttoriSetLstIZ6mytestvEUlvE_Z6mytestvEUlvE0_Z6mytestvEUlvE1_EbT_T0_T1_EUlS7_E2_E9_M_invokeERKSt9_Any_dataS7_
FNDA:5,_ZNSt17_Function_handlerIFvRKNSt7__cxx1112basic_stringIcSt11char_traitsIcESaIcEEEEZ21testCostruttoriSetLstIZ6mytestvEUlvE_Z6mytestvEUlvE0_Z6mytestvEUlvE1_EbT_T0_T1_EUlS7_E3_E9_M_invokeERKSt9_Any_dataS7_
FNDA:5,_ZNSt17_Function_handlerIFvRKNSt7__cxx1112basic_stringIcSt11char_traitsIcESaIcEEEEZ21testCostruttoriSetLstIZ6mytestvEUlvE_Z6mytestvEUlvE0_Z6mytestvEUlvE1_EbT_T0_T1_EUlS7_E_E9_M_invokeERKSt9_Any_dataS7_
FNDA:5,_ZNSt17_Function_handlerIFvRKNSt7__cxx1112basic_stringIcSt11char_traitsIcESaIcEEEEZ21testCostruttoriSetVecIZ6mytestvEUlvE_Z6mytestvEUlvE0_Z6mytestvEUlvE1_EbT_T0_T1_EUlS7_E0_E9_M_invokeERKSt9_Any_dataS7_
FNDA:5,_ZNSt17_Function_handlerIFvRKNSt7__cxx1112basic_stringIcSt11char_traitsIcESaIcEEEEZ21testCostruttoriSetVecIZ6mytestvEUlvE_Z6mytestvEUlvE0_Z6mytestvEUlvE1_EbT_T0_T1_EUlS7_E1_E9_M_invokeERKSt9_Any_dataS7_
FNDA:5,_ZNSt17_Function_handlerIFvRKNSt7__cxx1112basic_stringIcSt11char_traitsIcESaIcEEEEZ21testCostruttoriSetVecIZ6mytestvEUlvE_Z6mytestvEUlvE0_Z6mytestvEUlvE1_EbT_T0_T1_EUlS7_E2_E9_M_invokeERKSt9_Any_dataS7_
FNDA:5,_ZNSt17_Function_handlerIFvRKNSt7__cxx1112basic_stringIcSt11char_traitsIcESaIcEEEEZ21testCostruttoriSetVecIZ6mytestvEUlvE_Z6mytestvEUlvE0_Z6mytestvEUlvE1_EbT_T0_T1_EUlS7_E3_E9_M_invokeERKSt9_Any_dataS7_
FNDA:5,_ZNSt17_Function_handlerIFvRKNSt7__cxx1112basic_stringIcSt11char_traitsIcESaIcEEEEZ21testCostruttoriSetVecIZ6mytestvEUlvE_Z6mytestvEUlvE0_Z6mytestvEUlvE1_EbT_T0_T1_EUlS7_E_E9_M_invokeERKSt9_Any_dataS7_
FNDA:5,_ZNSt17_Function_handlerIFvRKNSt7__cxx1112basic_stringIcSt11char_traitsIcESaIcEEEEZ21testCostruttoriVectorvEUlS7_E0_E9_M_invokeERKSt9_Any_dataS7_
FNDA:5,_ZNSt17_Function_handlerIFvRKNSt7__cxx1112basic_stringIcSt11char_traitsIcESaIcEEEEZ21testCostruttoriVectorvEUlS7_E1_E9_M_invokeERKSt9_Any_dataS7_
FNDA:5,_ZNSt17_Function_handlerIFvRKNSt7__cxx1112basic_stringIcSt11char_traitsIcESaIcEEEEZ21testCostruttoriVectorvEUlS7_E_E9_M_invokeERKSt9_Any_dataS7_
FNDA:5,_ZNSt17_Function_handlerIFvRKNSt7__cxx1112basic_stringIcSt11char_traitsIcESaIcEEEEZ22testCostruttoriHeapVecIZ6mytestvEUlvE_Z6mytestvEUlvE0_Z6mytestvEUlvE1_EbT_T0_T1_EUlS7_E0_E9_M_invokeERKSt9_Any_dataS7_
FNDA:5,_ZNSt17_Function_handlerIFvRKNSt7__cxx1112basic_stringIcSt11char_traitsIcESaIcEEEEZ22testCostruttoriHeapVecIZ6mytestvEUlvE_Z6mytestvEUlvE0_Z6mytestvEUlvE1_EbT_T0_T1_EUlS7_E1_E9_M_invokeERKSt9_Any_dataS7_
FNDA:5,_ZNSt17_Function_handlerIFvRKNSt7__cxx1112basic_stringIcSt11char_traitsIcESaIcEEEEZ22testCostruttoriHeapVecIZ6mytestvEUlvE_Z6mytestvEUlvE0_Z6mytestvEUlvE1_EbT_T0_T1_EUlS7_E2_E9_M_invokeERKSt9_Any_dataS7_
FNDA:5,_ZNSt17_Function_handlerIFvRKNSt7__cxx1112basic_stringIcSt11char_traitsIcESaIcEEEEZ22testCostruttoriHeapVecIZ6mytestvEUlvE_Z6mytestvEUlvE0_Z6mytestvEUlvE1_EbT_T0_T1_EUlS7_E3_E9_M_invokeERKSt9_Any_dataS7_
FNDA:5,_ZNSt17_Function_handlerIFvRKNSt7__cxx1112basic_stringIcSt11char_traitsIcESaIcEEEEZ22testCostruttoriHeapVecIZ6mytestvEUlvE_Z6mytestvEUlvE0_Z6mytestvEUlvE1_EbT_T0_T1_EUlS7_E_E9_M_invokeERKSt9_Any_dataS7_
FNDA:0,_ZNSt17_Function_handlerIFvRKNSt7__cxx1112basic_stringIcSt11char_traitsIcESaIcEEEEZN4lasd19DictionaryContainerIS5_E10InsertSomeERKNS9_20TraversableContainerIS5_EEEUlS7_E_E9_M_invokeERKSt9_Any_dataS7_
FNDA:0,_ZNSt17_Function_handlerIFvRKNSt7__cxx1112basic_stringIcSt11char_traitsIcESaIcEEEEZN4lasd19DictionaryContainerIS5_E10RemoveSomeERKNS9_20TraversableContainerIS5_EEEUlS7_E_E9_M_invokeERKSt9_Any_dataS7_
FNDA:0,_ZNSt17_Function_handlerIFvRKNSt7__cxx1112basic_stringIcSt11char_traitsIcESaIcEEEEZN4lasd19DictionaryContainerIS5_E9InsertAllERKNS9_20TraversableContainerIS5_EEEUlS7_E_E9_M_invokeERKSt9_Any_dataS7_
FNDA:0,_ZNSt17_Function_handlerIFvRKNSt7__cxx1112basic_stringIcSt11char_traitsIcESaIcEEEEZN4lasd19DictionaryContainerIS5_E9RemoveAllERKNS9_20TraversableContainerIS5_EEEUlS7_E_E9_M_invokeERKSt9_Any_dataS7_
FNDA:8,_ZNSt17_Function_handlerIFvRKNSt7__cxx1112basic_stringIcSt11char_traitsIcESaIcEEEEZN4lasd4ListIS5_EC4ERKNS9_20TraversableContainerIS5_EEEUlS7_E_E9_M_invokeERKSt9_Any_dataS7_
FNDA:10,_ZNSt17_Function_handlerIFvRKNSt7__cxx1112basic_stringIcSt11char_traitsIcESaIcEEEEZN4lasd6SetLstIS5_EC4ERKNS9_20TraversableContainerIS5_EEEUlS7_E_E9_M_invokeERKSt9_Any_dataS7_
FNDA:10,_ZNSt17_Function_handlerIFvRKNSt7__cxx1112basic_stringIcSt11char_traitsIcESaIcEEEEZN4lasd6SetVecIS5_EC4ERKNS9_20TraversableContainerIS5_EEEUlS7_E_E9_M_invokeERKSt9_Any_dataS7_
FNDA:56,_ZNSt17_Function_handlerIFvRKNSt7__cxx1112basic_stringIcSt11char_traitsIcESaIcEEEEZN4lasd6VectorIS5_EC4ERKNS9_20TraversableContainerIS5_EEEUlS7_E_E9_M_invokeERKSt9_Any_dataS7_
FNDA:153,_ZNSt17_Function_handlerIFvRKNSt7__cxx1112basic_stringIcSt11char_traitsIcESaIcEEEEZNK4lasd20TraversableContainerIS5_E6ExistsES7_EUlS7_E_E9_M_invokeERKSt9_Any_dataS7_
FNDA:167,_ZNSt17_Function_handlerIFvRKNSt7__cxx1112basic_stringIcSt11char_traitsIcESaIcEEEEZNK4lasd28PreOrderTraversableContainerIS5_E12PreOrderFoldIS5_EET_St8functionIFSD_S7_RKSD_EESD_EUlS7_E_E9_M_invokeERKSt9_Any_dataS7_
FNDA:158,_ZNSt17_Function_handlerIFvRKNSt7__cxx1112basic_stringIcSt11char_traitsIcESaIcEEEEZNK4lasd29PostOrderTraversableContainerIS5_E13PostOrderFoldIS5_EET_St8functionIFSD_S7_RKSD_EESD_EUlS7_E_E9_M_invokeERKSt9_Any_dataS7_
FNDA:508,_ZNSt17_Function_handlerIFvRKdEPS2_E9_M_invokeERKSt9_Any_dataS1_
FNDA:5,_ZNSt17_Function_handlerIFvRKdEZ19testCostruttoriListvEUlS1_E0_E9_M_invokeERKSt9_Any_dataS1_
FNDA:5,_ZNSt17_Function_handlerIFvRKdEZ19testCostruttoriListvEUlS1_E1_E9_M_invokeERKSt9_Any_dataS1_
FNDA:5,_ZNSt17_Function_handlerIFvRKdEZ19testCostruttoriListvEUlS1_E_E9_M_invokeERKSt9_Any_dataS1_
FNDA:5,_ZNSt17_Function_handlerIFvRKdEZ21testCostruttoriPQHeapIZ6mytestvEUlvE_Z6mytestvEUlvE0_Z6mytestvEUlvE1_EbT_T0_T1_EUlS1_E0_E9_M_invokeERKSt9_Any_dataS1_
FNDA:5,_ZNSt17_Function_handlerIFvRKdEZ21testCostruttoriPQHeapIZ6mytestvEUlvE_Z6mytestvEUlvE0_Z6mytestvEUlvE1_EbT_T0_T1_EUlS1_E1_E9_M_invokeERKSt9_Any_dataS1_
FNDA:5,_ZNSt17_Function_handlerIFvRKdEZ21testCostruttoriPQHeapIZ6mytestvEUlvE_Z6mytestvEUlvE0_Z6mytestvEUlvE1_EbT_T0_T1_EUlS1_E2_E9_M_invokeERKSt9_Any_dataS1_
FNDA:5,_ZNSt17_Function_handlerIFvRKdEZ21testCostruttoriPQHeapIZ6mytestvEUlvE_Z6mytestvEUlvE0_Z6mytestvEUlvE1_EbT_T0_T1_EUlS1_E3_E9_M_invokeERKSt9_Any_dataS1_
FNDA:5,_ZNSt17_Function_handlerIFvRKdEZ21testCostruttoriPQHeapIZ6mytestvEUlvE_Z6mytestvEUlvE0_Z6mytestvEUlvE1_EbT_T0_T1_EUlS1_E_E9_M_invokeERKSt9_Any_dataS1_
FNDA:5,_ZNSt17_Function_handlerIFvRKdEZ21testCostruttoriSetLstIZ6mytestvEUlvE_Z6mytestvEUlvE0_Z6mytestvEUlvE1_EbT_T0_T1_EUlS1_E0_E9_M_invokeERKSt9_Any_dataS1_
FNDA:5,_ZNSt17_Function_handlerIFvRKdEZ21testCostruttoriSetLstIZ6mytestvEUlvE_Z6mytestvEUlvE0_Z6mytestvEUlvE1_EbT_T0_T1_EUlS1_E1_E9_M_invokeERKSt9_Any_dataS1_
FNDA:5,_ZNSt17_Function_handlerIFvRKdEZ21testCostruttoriSetLstIZ6mytestvEUlvE_Z6mytestvEUlvE0_Z6mytestvEUlvE1_EbT_T0_T1_EUlS1_E2_E9_M_invokeERKSt9_Any_dataS1_
FNDA:5,_ZNSt17_Function_handlerIFvRKdEZ21testCostruttoriSetLstIZ6mytestvEUlvE_Z6mytestvEUlvE0_Z6mytestvEUlvE1_EbT_T0_T1_EUlS1_E3_E9_M_invokeERKSt9_Any_dataS1_
FNDA:5,_ZNSt17_Function_handlerIFvRKdEZ21testCostruttoriSetLstIZ6mytestvEUlvE_Z6mytestvEUlvE0_Z6mytestvEUlvE1_EbT_T0_T1_EUlS1_E_E9_M_invokeERKSt9_Any_dataS1_
FNDA:5,_ZNSt17_Function_handlerIFvRKdEZ21testCostruttoriSetVecIZ6mytestvEUlvE_Z6mytestvEUlvE0_Z6mytestvEUlvE1_EbT_T0_T1_EUlS1_E0_E9_M_invokeERKSt9_Any_dataS1_
FNDA:5,_ZNSt17_Function_handlerIFvRKdEZ21testCostruttoriSetVecIZ6mytestvEUlvE_Z6mytestvEUlvE0_Z6mytestvEUlvE1_EbT_T0_T1_EUlS1_E1_E9_M_invokeERKSt9_Any_dataS1_
FNDA:5,_ZNSt17_Function_handlerIFvRKdEZ21testCostruttoriSetVecIZ6mytestvEUlvE_Z6mytestvEUlvE0_Z6mytestvEUlvE1_EbT_T0_T1_EUlS1_E2_E9_M_invokeERKSt9_Any_dataS1_
FNDA:5,_ZNSt17_Function_handlerIFvRKdEZ21testCostruttoriSetVecIZ6mytestvEUlvE_Z6mytestvEUlvE0_Z6mytestvEUlvE1_EbT_T0_T1_EUlS1_E3_E9_M_invokeERKSt9_Any_dataS1_
FNDA:5,_ZNSt17_Function_handlerIFvRKdEZ21testCostruttoriSetVecIZ6mytestvEUlvE_Z6mytestvEUlvE0_Z6mytestvEUlvE1_EbT_T0_T1_EUlS1_E_E9_M_invokeERKSt9_Any_dataS1_
FNDA:5,_ZNSt17_Function_handlerIFvRKdEZ21testCostruttoriVectorvEUlS1_E0_E9_M_invokeERKSt9_Any_dataS1_
FNDA:5,_ZNSt17_Function_handlerIFvRKdEZ21testCostruttoriVectorvEUlS1_E1_E9_M_invokeERKSt9_Any_dataS1_
FNDA:5,_ZNSt17_Function_handlerIFvRKdEZ21testCostruttoriVectorvEUlS1_E_E9_M_invokeERKSt9_Any_dataS1_
FNDA:5,_ZNSt17_Function_handlerIFvRKdEZ22testCostruttoriHeapVecIZ6mytestvEUlvE_Z6mytestvEUlvE0_Z6mytestvEUlvE1_EbT_T0_T1_EUlS1_E0_E9_M_invokeERKSt9_Any_dataS1_
FNDA:5,_ZNSt17_Function_handlerIFvRKdEZ22testCostruttoriHeapVecIZ6mytestvEUlvE_Z6mytestvEUlvE0_Z6mytestvEUlvE1_EbT_T0_T1_EUlS1_E1_E9_M_invokeERKSt9_Any_dataS1_
FNDA:5,_ZNSt17_Function_handlerIFvRKdEZ22testCostruttoriHeapVecIZ6mytestvEUlvE_Z6mytestvEUlvE0_Z6mytestvEUlvE1_EbT_T0_T1_EUlS1_E2_E9_M_invokeERKSt9_Any_dataS1_
FNDA:5,_ZNSt17_Function_handlerIFvRKdEZ22testCostruttoriHeapVecIZ6mytestvEUlvE_Z6mytestvEUlvE0_Z6mytestvEUlvE1_EbT_T0_T1_EUlS1_E3_E9_M_invokeERKSt9_Any_dataS1_
FNDA:5,_ZNSt17_Function_handlerIFvRKdEZ22testCostruttoriHeapVecIZ6mytestvEUlvE_Z6mytestvEUlvE0_Z6mytestvEUlvE1_EbT_T0_T1_EUlS1_E_E9_M_invokeERKSt9_Any_dataS1_
FNDA:0,_ZNSt17_Function_handlerIFvRKdEZN4lasd19DictionaryContainerIdE10InsertSomeERKNS3_20TraversableContainerIdEEEUlS1_E_E9_M_invokeERKSt9_Any_dataS1_
FNDA:0,_ZNSt17_Function_handlerIFvRKdEZN4lasd19DictionaryContainerIdE10RemoveSomeERKNS3_20TraversableContainerIdEEEUlS1_E_E9_M_invokeERKSt9_Any_dataS1_
FNDA:0,_ZNSt17_Function_handlerIFvRKdEZN4lasd19DictionaryContainerIdE9InsertAllERKNS3_20TraversableContainerIdEEEUlS1_E_E9_M_invokeERKSt9_Any_dataS1_
FNDA:0,_ZNSt17_Function_handlerIFvRKdEZN4lasd19DictionaryContainerIdE9RemoveAllERKNS3_20TraversableContainerIdEEEUlS1_E_E9_M_invokeERKSt9_Any_dataS1_
FNDA:8,_ZNSt17_Function_handlerIFvRKdEZN4lasd4ListIdEC4ERKNS3_20TraversableContainerIdEEEUlS1_E_E9_M_invokeERKSt9_Any_dataS1_
FNDA:11,_ZNSt17_Function_handlerIFvRKdEZN4lasd6SetLstIdEC4ERKNS3_20TraversableContainerIdEEEUlS1_E_E9_M_invokeERKSt9_Any_dataS1_
FNDA:11,_ZNSt17_Function_handlerIFvRKdEZN4lasd6SetVecIdEC4ERKNS3_20TraversableContainerIdEEEUlS1_E_E9_M_invokeERKSt9_Any_dataS1_
FNDA:46,_ZNSt17_Function_handlerIFvRKdEZN4lasd6VectorIdEC4ERKNS3_20TraversableContainerIdEEEUlS1_E_E9_M_invokeERKSt9_Any_dataS1_
FNDA:147,_ZNSt17_Function_handlerIFvRKdEZNK4lasd20TraversableContainerIdE6ExistsES1_EUlS1_E_E9_M_invokeERKSt9_Any_dataS1_
FNDA:14,_ZNSt17_Function_handlerIFvRKdEZNK4lasd28PreOrderTraversableContainerIdE12PreOrderFoldIdEET_St8functionIFS7_S1_RKS7_EES7_EUlS1_E_E9_M_invokeERKSt9_Any_dataS1_
FNDA:14,_ZNSt17_Function_handlerIFvRKdEZNK4lasd29PostOrderTraversableContainerIdE13PostOrderFoldIdEET_St8functionIFS7_S1_RKS7_EES7_EUlS1_E_E9_M_invokeERKSt9_Any_dataS1_
FNDA:1280,_ZNSt17_Function_handlerIFvRKiEPS2_E9_M_invokeERKSt9_Any_dataS1_
FNDA:5,_ZNSt17_Function_handlerIFvRKiEZ16testFunzioniListvEUlS1_E0_E9_M_invokeERKSt9_Any_dataS1_
FNDA:5,_ZNSt17_Function_handlerIFvRKiEZ16testFunzioniListvEUlS1_E10_E9_M_invokeERKSt9_Any_dataS1_
FNDA:5,_ZNSt17_Function_handlerIFvRKiEZ16testFunzioniListvEUlS1_E11_E9_M_invokeERKSt9_Any_dataS1_
FNDA:5,_ZNSt17_Function_handlerIFvRKiEZ16testFunzioniListvEUlS1_E1_E9_M_invokeERKSt9_Any_dataS1_
FNDA:4,_ZNSt17_Function_handlerIFvRKiEZ16testFunzioniListvEUlS1_E2_E9_M_invokeERKSt9_Any_dataS1_
FNDA:6,_ZNSt17_Function_handlerIFvRKiEZ16testFunzioniListvEUlS1_E3_E9_M_invokeERKSt9_Any_dataS1_
FNDA:4,_ZNSt17_Function_handlerIFvRKiEZ16testFunzioniListvEUlS1_E4_E9_M_invokeERKSt9_Any_dataS1_
FNDA:4,_ZNSt17_Function_handlerIFvRKiEZ16testFunzioniListvEUlS1_E5_E9_M_invokeERKSt9_Any_dataS1_
FNDA:0,_ZNSt17_Function_handlerIFvRKiEZ16testFunzioniListvEUlS1_E6_E9_M_invokeERKSt9_Any_dataS1_
FNDA:5,_ZNSt17_Function_handlerIFvRKiEZ16testFunzioniListvEUlS1_E7_E9_M_invokeERKSt9_Any_dataS1_
FNDA:5,_ZNSt17_Function_handlerIFvRKiEZ16testFunzioniListvEUlS1_E8_E9_M_invokeERKSt9_Any_dataS1_
FNDA:5,_ZNSt17_Function_handlerIFvRKiEZ16testFunzioniListvEUlS1_E9_E9_M_invokeERKSt9_Any_dataS1_
FNDA:5,_ZNSt17_Function_handlerIFvRKiEZ16testFunzioniListvEUlS1_E_E9_M_invokeERKSt9_Any_dataS1_
FNDA:7,_ZNSt17_Function_handlerIFvRKiEZ18testFunzioniPQHeapvEUlS1_E0_E9_M_invokeERKSt9_Any_dataS1_
FNDA:7,_ZNSt17_Function_handlerIFvRKiEZ18testFunzioniPQHeapvEUlS1_E1_E9_M_invokeERKSt9_Any_dataS1_
FNDA:7,_ZNSt17_Function_handlerIFvRKiEZ18testFunzioniPQHeapvEUlS1_E2_E9_M_invokeERKSt9_Any_dataS1_
FNDA:7,_ZNSt17_Function_handlerIFvRKiEZ18testFunzioniPQHeapvEUlS1_E3_E9_M_invokeERKSt9_Any_dataS1_
FNDA:7,_ZNSt17_Function_handlerIFvRKiEZ18testFunzioniPQHeapvEUlS1_E_E9_M_invokeERKSt9_Any_dataS1_
FNDA:4,_ZNSt17_Function_handlerIFvRKiEZ18testFunzioniSetLstvEUlS1_E0_E9_M_invokeERKSt9_Any_dataS1_
FNDA:3,_ZNSt17_Function_handlerIFvRKiEZ18testFunzioniSetLstvEUlS1_E10_E9_M_invokeERKSt9_Any_dataS1_
FNDA:3,_ZNSt17_Function_handlerIFvRKiEZ18testFunzioniSetLstvEUlS1_E11_E9_M_invokeERKSt9_Any_dataS1_
FNDA:3,_ZNSt17_Function_handlerIFvRKiEZ18testFunzioniSetLstvEUlS1_E12_E9_M_invokeERKSt9_Any_dataS1_
FNDA:3,_ZNSt17_Function_handlerIFvRKiEZ18testFunzioniSetLstvEUlS1_E13_E9_M_invokeERKSt9_Any_dataS1_
FNDA:3,_ZNSt17_Function_handlerIFvRKiEZ18testFunzioniSetLstvEUlS1_E14_E9_M_invokeERKSt9_Any_dataS1_
FNDA:2,_ZNSt17_Function_handlerIFvRKiEZ18testFunzioniSetLstvEUlS1_E15_E9_M_invokeERKSt9_Any_dataS1_
FNDA:2,_ZNSt17_Function_handlerIFvRKiEZ18testFunzioniSetLstvEUlS1_E16_E9_M_invokeERKSt9_Any_dataS1_
FNDA:2,_ZNSt17_Function_handlerIFvRKiEZ18testFunzioniSetLstvEUlS1_E17_E9_M_invokeERKSt9_Any_dataS1_
FNDA:2,_ZNSt17_Function_handlerIFvRKiEZ18testFunzioniSetLstvEUlS1_E18_E9_M_invokeERKSt9_Any_dataS1_
FNDA:6,_ZNSt17_Function_handlerIFvRKiEZ18testFunzioniSetLstvEUlS1_E19_E9_M_invokeERKSt9_Any_dataS1_
FNDA:4,_ZNSt17_Function_handlerIFvRKiEZ18testFunzioniSetLstvEUlS1_E1_E9_M_invokeERKSt9_Any_dataS1_
FNDA:6,_ZNSt17_Function_handlerIFvRKiEZ18testFunzioniSetLstvEUlS1_E20_E9_M_invokeERKSt9_Any_dataS1_
FNDA:4,_ZNSt17_Function_handlerIFvRKiEZ18testFunzioniSetLstvEUlS1_E2_E9_M_invokeERKSt9_Any_dataS1_
FNDA:5,_ZNSt17_Function_handlerIFvRKiEZ18testFunzioniSetLstvEUlS1_E3_E9_M_invokeERKSt9_Any_dataS1_
FNDA:4,_ZNSt17_Function_handlerIFvRKiEZ18testFunzioniSetLstvEUlS1_E4_E9_M_invokeERKSt9_Any_dataS1_
FNDA:5,_ZNSt17_Function_handlerIFvRKiEZ18testFunzioniSetLstvEUlS1_E5_E9_M_invokeERKSt9_Any_dataS1_
FNDA:5,_ZNSt17_Function_handlerIFvRKiEZ18testFunzioniSetLstvEUlS1_E6_E9_M_invokeERKSt9_Any_dataS1_
FNDA:5,_ZNSt17_Function_handlerIFvRKiEZ18testFunzioniSetLstvEUlS1_E7_E9_M_invokeERKSt9_Any_dataS1_
FNDA:4,_ZNSt17_Function_handlerIFvRKiEZ18testFunzioniSetLstvEUlS1_E8_E9_M_invokeERKSt9_Any_dataS1_
FNDA:4,_ZNSt17_Function_handlerIFvRKiEZ18testFunzioniSetLstvEUlS1_E9_E9_M_invokeERKSt9_Any_dataS1_
FNDA:4,_ZNSt17_Function_handlerIFvRKiEZ18testFunzioniSetLstvEUlS1_E_E9_M_invokeERKSt9_Any_dataS1_
FNDA:4,_ZNSt17_Function_handlerIFvRKiEZ18testFunzioniSetVecvEUlS1_E0_E9_M_invokeERKSt9_Any_dataS1_
FNDA:4,_ZNSt17_Function_handlerIFvRKiEZ18testFunzioniSetVecvEUlS1_E10_E9_M_invokeERKSt9_Any_dataS1_
FNDA:4,_ZNSt17_Function_handlerIFvRKiEZ18testFunzioniSetVecvEUlS1_E11_E9_M_invokeERKSt9_Any_dataS1_
FNDA:4,_ZNSt17_Function_handlerIFvRKiEZ18testFunzioniSetVecvEUlS1_E12_E9_M_invokeERKSt9_Any_dataS1_
FNDA:4,_ZNSt17_Function_handlerIFvRKiEZ18testFunzioniSetVecvEUlS1_E13_E9_M_invokeERKSt9_Any_dataS1_
FNDA:4,_ZNSt17_Function_handlerIFvRKiEZ18testFunzioniSetVecvEUlS1_E14_E9_M_invokeERKSt9_Any_dataS1_
FNDA:4,_ZNSt17_Function_handlerIFvRKiEZ18testFunzioniSetVecvEUlS1_E1_E9_M_invokeERKSt9_Any_dataS1_
FNDA:4,_ZNSt17_Function_handlerIFvRKiEZ18testFunzioniSetVecvEUlS1_E2_E9_M_invokeERKSt9_Any_dataS1_
FNDA:6,_ZNSt17_Function_handlerIFvRKiEZ18testFunzioniSetVecvEUlS1_E3_E9_M_invokeERKSt9_Any_dataS1_
FNDA:5,_ZNSt17_Function_handlerIFvRKiEZ18testFunzioniSetVecvEUlS1_E4_E9_M_invokeERKSt9_Any_dataS1_
FNDA:5,_ZNSt17_Function_handlerIFvRKiEZ18testFunzioniSetVecvEUlS1_E5_E9_M_invokeERKSt9_Any_dataS1_
FNDA:5,_ZNSt17_Function_handlerIFvRKiEZ18testFunzioniSetVecvEUlS1_E6_E9_M_invokeERKSt9_Any_dataS1_
FNDA:5,_ZNSt17_Function_handlerIFvRKiEZ18testFunzioniSetVecvEUlS1_E7_E9_M_invokeERKSt9_Any_dataS1_
FNDA:5,_ZNSt17_Function_handlerIFvRKiEZ18testFunzioniSetVecvEUlS1_E8_E9_M_invokeERKSt9_Any_dataS1_
FNDA:4,_ZNSt17_Function_handlerIFvRKiEZ18testFunzioniSetVecvEUlS1_E9_E9_M_invokeERKSt9_Any_dataS1_
FNDA:4,_ZNSt17_Function_handlerIFvRKiEZ18testFunzioniSetVecvEUlS1_E_E9_M_invokeERKSt9_Any_dataS1_
FNDA:5,_ZNSt17_Function_handlerIFvRKiEZ18testFunzioniVectorvEUlS1_E0_E9_M_invokeERKSt9_Any_dataS1_
FNDA:6,_ZNSt17_Function_handlerIFvRKiEZ18testFunzioniVectorvEUlS1_E1_E9_M_invokeERKSt9_Any_dataS1_
FNDA:4,_ZNSt17_Function_handlerIFvRKiEZ18testFunzioniVectorvEUlS1_E2_E9_M_invokeERKSt9_Any_dataS1_
FNDA:5,_ZNSt17_Function_handlerIFvRKiEZ18testFunzioniVectorvEUlS1_E_E9_M_invokeERKSt9_Any_dataS1_
FNDA:5,_ZNSt17_Function_handlerIFvRKiEZ19testCostruttoriListvEUlS1_E0_E9_M_invokeERKSt9_Any_dataS1_
FNDA:5,_ZNSt17_Function_handlerIFvRKiEZ19testCostruttoriListvEUlS1_E1_E9_M_invokeERKSt9_Any_dataS1_
FNDA:5,_ZNSt17_Function_handlerIFvRKiEZ19testCostruttoriListvEUlS1_E_E9_M_invokeERKSt9_Any_dataS1_
FNDA:7,_ZNSt17_Function_handlerIFvRKiEZ19testFunzioniHeapVecvEUlS1_E0_E9_M_invokeERKSt9_Any_dataS1_
FNDA:7,_ZNSt17_Function_handlerIFvRKiEZ19testFunzioniHeapVecvEUlS1_E1_E9_M_invokeERKSt9_Any_dataS1_
FNDA:7,_ZNSt17_Function_handlerIFvRKiEZ19testFunzioniHeapVecvEUlS1_E2_E9_M_invokeERKSt9_Any_dataS1_
FNDA:7,_ZNSt17_Function_handlerIFvRKiEZ19testFunzioniHeapVecvEUlS1_E3_E9_M_invokeERKSt9_Any_dataS1_
FNDA:5,_ZNSt17_Function_handlerIFvRKiEZ19testFunzioniHeapVecvEUlS1_E4_E9_M_invokeERKSt9_Any_dataS1_
FNDA:7,_ZNSt17_Function_handlerIFvRKiEZ19testFunzioniHeapVecvEUlS1_E_E9_M_invokeERKSt9_Any_dataS1_
FNDA:2,_ZNSt17_Function_handlerIFvRKiEZ20testCasiLimitePQHeapvEUlS1_E0_E9_M_invokeERKSt9_Any_dataS1_
FNDA:2,_ZNSt17_Function_handlerIFvRKiEZ20testCasiLimitePQHeapvEUlS1_E_E9_M_invokeERKSt9_Any_dataS1_
FNDA:5,_ZNSt17_Function_handlerIFvRKiEZ20testCasiLimiteSetLstvEUlS1_E0_E9_M_invokeERKSt9_Any_dataS1_
FNDA:5,_ZNSt17_Function_handlerIFvRKiEZ20testCasiLimiteSetLstvEUlS1_E1_E9_M_invokeERKSt9_Any_dataS1_
FNDA:5,_ZNSt17_Function_handlerIFvRKiEZ20testCasiLimiteSetLstvEUlS1_E2_E9_M_invokeERKSt9_Any_dataS1_
FNDA:4,_ZNSt17_Function_handlerIFvRKiEZ20testCasiLimiteSetLstvEUlS1_E3_E9_M_invokeERKSt9_Any_dataS1_
FNDA:5,_ZNSt17_Function_handlerIFvRKiEZ20testCasiLimiteSetLstvEUlS1_E4_E9_M_invokeERKSt9_Any_dataS1_
FNDA:5,_ZNSt17_Function_handlerIFvRKiEZ20testCasiLimiteSetLstvEUlS1_E5_E9_M_invokeERKSt9_Any_dataS1_
FNDA:5,_ZNSt17_Function_handlerIFvRKiEZ20testCasiLimiteSetLstvEUlS1_E6_E9_M_invokeERKSt9_Any_dataS1_
FNDA:1,_ZNSt17_Function_handlerIFvRKiEZ20testCasiLimiteSetLstvEUlS1_E7_E9_M_invokeERKSt9_Any_dataS1_
FNDA:1,_ZNSt17_Function_handlerIFvRKiEZ20testCasiLimiteSetLstvEUlS1_E8_E9_M_invokeERKSt9_Any_dataS1_
FNDA:5,_ZNSt17_Function_handlerIFvRKiEZ20testCasiLimiteSetLstvEUlS1_E_E9_M_invokeERKSt9_Any_dataS1_
FNDA:5,_ZNSt17_Function_handlerIFvRKiEZ20testCasiLimiteSetVecvEUlS1_E0_E9_M_invokeERKSt9_Any_dataS1_
FNDA:0,_ZNSt17_Function_handlerIFvRKiEZ20testCasiLimiteSetVecvEUlS1_E10_E9_M_invokeERKSt9_Any_dataS1_
FNDA:0,_ZNSt17_Function_handlerIFvRKiEZ20testCasiLimiteSetVecvEUlS1_E11_E9_M_invokeERKSt9_Any_dataS1_
FNDA:0,_ZNSt17_Function_handlerIFvRKiEZ20testCasiLimiteSetVecvEUlS1_E12_E9_M_invokeERKSt9_Any_dataS1_
FNDA:5,_ZNSt17_Function_handlerIFvRKiEZ20testCasiLimiteSetVecvEUlS1_E1_E9_M_invokeERKSt9_Any_dataS1_
FNDA:5,_ZNSt17_Function_handlerIFvRKiEZ20testCasiLimiteSetVecvEUlS1_E2_E9_M_invokeERKSt9_Any_dataS1_
FNDA:5,_ZNSt17_Function_handlerIFvRKiEZ20testCasiLimiteSetVecvEUlS1_E3_E9_M_invokeERKSt9_Any_dataS1_
FNDA:5,_ZNSt17_Function_handlerIFvRKiEZ20testCasiLimiteSetVecvEUlS1_E4_E9_M_invokeERKSt9_Any_dataS1_
FNDA:4,_ZNSt17_Function_handlerIFvRKiEZ20testCasiLimiteSetVecvEUlS1_E5_E9_M_invokeERKSt9_Any_dataS1_
FNDA:3,_ZNSt17_Function_handlerIFvRKiEZ20testCasiLimiteSetVecvEUlS1_E6_E9_M_invokeERKSt9_Any_dataS1_
FNDA:2,_ZNSt17_Function_handlerIFvRKiEZ20testCasiLimiteSetVecvEUlS1_E7_E9_M_invokeERKSt9_Any_dataS1_
FNDA:1,_ZNSt17_Function_handlerIFvRKiEZ20testCasiLimiteSetVecvEUlS1_E8_E9_M_invokeERKSt9_Any_dataS1_
FNDA:0,_ZNSt17_Function_handlerIFvRKiEZ20testCasiLimiteSetVecvEUlS1_E9_E9_M_invokeERKSt9_Any_dataS1_
FNDA:5,_ZNSt17_Function_handlerIFvRKiEZ20testCasiLimiteSetVecvEUlS1_E_E9_M_invokeERKSt9_Any_dataS1_
FNDA:5,_ZNSt17_Function_handlerIFvRKiEZ21testCostruttoriPQHeapIZ6mytestvEUlvE_Z6mytestvEUlvE0_Z6mytestvEUlvE1_EbT_T0_T1_EUlS1_E0_E9_M_invokeERKSt9_Any_dataS1_
FNDA:5,_ZNSt17_Function_handlerIFvRKiEZ21testCostruttoriPQHeapIZ6mytestvEUlvE_Z6mytestvEUlvE0_Z6mytestvEUlvE1_EbT_T0_T1_EUlS1_E1_E9_M_invokeERKSt9_Any_dataS1_
FNDA:5,_ZNSt17_Function_handlerIFvRKiEZ21testCostruttoriPQHeapIZ6mytestvEUlvE_Z6mytestvEUlvE0_Z6mytestvEUlvE1_EbT_T0_T1_EUlS1_E2_E9_M_invokeERKSt9_Any_dataS1_
FNDA:5,_ZNSt17_Function_handlerIFvRKiEZ21testCostruttoriPQHeapIZ6mytestvEUlvE_Z6mytestvEUlvE0_Z6mytestvEUlvE1_EbT_T0_T1_EUlS1_E3_E9_M_invokeERKSt9_Any_dataS1_
FNDA:5,_ZNSt17_Function_handlerIFvRKiEZ21testCostruttoriPQHeapIZ6mytestvEUlvE_Z6mytestvEUlvE0_Z6mytestvEUlvE1_EbT_T0_T1_EUlS1_E_E9_M_invokeERKSt9_Any_dataS1_
FNDA:5,_ZNSt17_Function_handlerIFvRKiEZ21testCostruttoriSetLstIZ6mytestvEUlvE_Z6mytestvEUlvE0_Z6mytestvEUlvE1_EbT_T0_T1_EUlS1_E0_E9_M_invokeERKSt9_Any_dataS1_
FNDA:5,_ZNSt17_Function_handlerIFvRKiEZ21testCostruttoriSetLstIZ6mytestvEUlvE_Z6mytestvEUlvE0_Z6mytestvEUlvE1_EbT_T0_T1_EUlS1_E1_E9_M_invokeERKSt9_Any_dataS1_
FNDA:5,_ZNSt17_Function_handlerIFvRKiEZ21testCostruttoriSetLstIZ6mytestvEUlvE_Z6mytestvEUlvE0_Z6mytestvEUlvE1_EbT_T0_T1_EUlS1_E2_E9_M_invokeERKSt9_Any_dataS1_
FNDA:5,_ZNSt17_Function_handlerIFvRKiEZ21testCostruttoriSetLstIZ6mytestvEUlvE_Z6mytestvEUlvE0_Z6mytestvEUlvE1_EbT_T0_T1_EUlS1_E3_E9_M_invokeERKSt9_Any_dataS1_
FNDA:5,_ZNSt17_Function_handlerIFvRKiEZ21testCostruttoriSetLstIZ6mytestvEUlvE_Z6mytestvEUlvE0_Z6mytestvEUlvE1_EbT_T0_T1_EUlS1_E_E9_M_invokeERKSt9_Any_dataS1_
FNDA:5,_ZNSt17_Function_handlerIFvRKiEZ21testCostruttoriSetVecIZ6mytestvEUlvE_Z6mytestvEUlvE0_Z6mytestvEUlvE1_EbT_T0_T1_EUlS1_E0_E9_M_invokeERKSt9_Any_dataS1_
FNDA:5,_ZNSt17_Function_handlerIFvRKiEZ21testCostruttoriSetVecIZ6mytestvEUlvE_Z6mytestvEUlvE0_Z6mytestvEUlvE1_EbT_T0_T1_EUlS1_E1_E9_M_invokeERKSt9_Any_dataS1_
FNDA:5,_ZNSt17_Function_handlerIFvRKiEZ21testCostruttoriSetVecIZ6mytestvEUlvE_Z6mytestvEUlvE0_Z6mytestvEUlvE1_EbT_T0_T1_EUlS1_E2_E9_M_invokeERKSt9_Any_dataS1_
FNDA:5,_ZNSt17_Function_handlerIFvRKiEZ21testCostruttoriSetVecIZ6mytestvEUlvE_Z6mytestvEUlvE0_Z6mytestvEUlvE1_EbT_T0_T1_EUlS1_E3_E9_M_invokeERKSt9_Any_dataS1_
FNDA:5,_ZNSt17_Function_handlerIFvRKiEZ21testCostruttoriSetVecIZ6mytestvEUlvE_Z6mytestvEUlvE0_Z6mytestvEUlvE1_EbT_T0_T1_EUlS1_E_E9_M_invokeERKSt9_Any_dataS1_
FNDA:5,_ZNSt17_Function_handlerIFvRKiEZ21testCostruttoriVectorvEUlS1_E0_E9_M_invokeERKSt9_Any_dataS1_
FNDA:5,_ZNSt17_Function_handlerIFvRKiEZ21testCostruttoriVectorvEUlS1_E1_E9_M_invokeERKSt9_Any_dataS1_
FNDA:5,_ZNSt17_Function_handlerIFvRKiEZ21testCostruttoriVectorvEUlS1_E_E9_M_invokeERKSt9_Any_dataS1_
FNDA:5,_ZNSt17_Function_handlerIFvRKiEZ22testCostruttoriHeapVecIZ6mytestvEUlvE_Z6mytestvEUlvE0_Z6mytestvEUlvE1_EbT_T0_T1_EUlS1_E0_E9_M_invokeERKSt9_Any_dataS1_
FNDA:5,_ZNSt17_Function_handlerIFvRKiEZ22testCostruttoriHeapVecIZ6mytestvEUlvE_Z6mytestvEUlvE0_Z6mytestvEUlvE1_EbT_T0_T1_EUlS1_E1_E9_M_invokeERKSt9_Any_dataS1_
FNDA:5,_ZNSt17_Function_handlerIFvRKiEZ22testCostruttoriHeapVecIZ6mytestvEUlvE_Z6mytestvEUlvE0_Z6mytestvEUlvE1_EbT_T0_T1_EUlS1_E2_E9_M_invokeERKSt9_Any_dataS1_
FNDA:5,_ZNSt17_Function_handlerIFvRKiEZ22testCostruttoriHeapVecIZ6mytestvEUlvE_Z6mytestvEUlvE0_Z6mytestvEUlvE1_EbT_T0_T1_EUlS1_E3_E9_M_invokeERKSt9_Any_dataS1_
FNDA:5,_ZNSt17_Function_handlerIFvRKiEZ22testCostruttoriHeapVecIZ6mytestvEUlvE_Z6mytestvEUlvE0_Z6mytestvEUlvE1_EbT_T0_T1_EUlS1_E_E9_M_invokeERKSt9_Any_dataS1_
FNDA:5,_ZNSt17_Function_handlerIFvRKiEZ27testUlterioriFunzioniVectorIZ6mytestvEUlvE_EbT_EUlS1_E0_E9_M_invokeERKSt9_Any_dataS1_
FNDA:5,_ZNSt17_Function_handlerIFvRKiEZ27testUlterioriFunzioniVectorIZ6mytestvEUlvE_EbT_EUlS1_E1_E9_M_invokeERKSt9_Any_dataS1_
FNDA:5,_ZNSt17_Function_handlerIFvRKiEZ27testUlterioriFunzioniVectorIZ6mytestvEUlvE_EbT_EUlS1_E2_E9_M_invokeERKSt9_Any_dataS1_
FNDA:5,_ZNSt17_Function_handlerIFvRKiEZ27testUlterioriFunzioniVectorIZ6mytestvEUlvE_EbT_EUlS1_E3_E9_M_invokeERKSt9_Any_dataS1_
FNDA:5,_ZNSt17_Function_handlerIFvRKiEZ27testUlterioriFunzioniVectorIZ6mytestvEUlvE_EbT_EUlS1_E4_E9_M_invokeERKSt9_Any_dataS1_
FNDA:5,_ZNSt17_Function_handlerIFvRKiEZ27testUlterioriFunzioniVectorIZ6mytestvEUlvE_EbT_EUlS1_E5_E9_M_invokeERKSt9_Any_dataS1_
FNDA:5,_ZNSt17_Function_handlerIFvRKiEZ27testUlterioriFunzioniVectorIZ6mytestvEUlvE_EbT_EUlS1_E6_E9_M_invokeERKSt9_Any_dataS1_
FNDA:5,_ZNSt17_Function_handlerIFvRKiEZ27testUlterioriFunzioniVectorIZ6mytestvEUlvE_EbT_EUlS1_E7_E9_M_invokeERKSt9_Any_dataS1_
FNDA:5,_ZNSt17_Function_handlerIFvRKiEZ27testUlterioriFunzioniVectorIZ6mytestvEUlvE_EbT_EUlS1_E8_E9_M_invokeERKSt9_Any_dataS1_
FNDA:5,_ZNSt17_Function_handlerIFvRKiEZ27testUlterioriFunzioniVectorIZ6mytestvEUlvE_EbT_EUlS1_E_E9_M_invokeERKSt9_Any_dataS1_
FNDA:5,_ZNSt17_Function_handlerIFvRKiEZN4lasd19DictionaryContainerIiE10InsertSomeERKNS3_20TraversableContainerIiEEEUlS1_E_E9_M_invokeERKSt9_Any_dataS1_
FNDA:0,_ZNSt17_Function_handlerIFvRKiEZN4lasd19DictionaryContainerIiE10RemoveSomeERKNS3_20TraversableContainerIiEEEUlS1_E_E9_M_invokeERKSt9_Any_dataS1_
FNDA:19,_ZNSt17_Function_handlerIFvRKiEZN4lasd19DictionaryContainerIiE9InsertAllERKNS3_20TraversableContainerIiEEEUlS1_E_E9_M_invokeERKSt9_Any_dataS1_
FNDA:3,_ZNSt17_Function_handlerIFvRKiEZN4lasd19DictionaryContainerIiE9RemoveAllERKNS3_20TraversableContainerIiEEEUlS1_E_E9_M_invokeERKSt9_Any_dataS1_
FNDA:13,_ZNSt17_Function_handlerIFvRKiEZN4lasd4ListIiEC4ERKNS3_20TraversableContainerIiEEEUlS1_E_E9_M_invokeERKSt9_Any_dataS1_
FNDA:12,_ZNSt17_Function_handlerIFvRKiEZN4lasd6SetLstIiEC4ERKNS3_20TraversableContainerIiEEEUlS1_E_E9_M_invokeERKSt9_Any_dataS1_
FNDA:12,_ZNSt17_Function_handlerIFvRKiEZN4lasd6SetVecIiEC4ERKNS3_20TraversableContainerIiEEEUlS1_E_E9_M_invokeERKSt9_Any_dataS1_
FNDA:89,_ZNSt17_Function_handlerIFvRKiEZN4lasd6VectorIiEC4ERKNS3_20TraversableContainerIiEEEUlS1_E_E9_M_invokeERKSt9_Any_dataS1_
FNDA:276,_ZNSt17_Function_handlerIFvRKiEZNK4lasd20TraversableContainerIiE6ExistsES1_EUlS1_E_E9_M_invokeERKSt9_Any_dataS1_
FNDA:112,_ZNSt17_Function_handlerIFvRKiEZNK4lasd28PreOrderTraversableContainerIiE12PreOrderFoldIiEET_St8functionIFS7_S1_RKS7_EES7_EUlS1_E_E9_M_invokeERKSt9_Any_dataS1_
FNDA:101,_ZNSt17_Function_handlerIFvRKiEZNK4lasd29PostOrderTraversableContainerIiE13PostOrderFoldIiEET_St8functionIFS7_S1_RKS7_EES7_EUlS1_E_E9_M_invokeERKSt9_Any_dataS1_
FNDA:28,_ZNSt17_Function_handlerIFvRNSt7__cxx1112basic_stringIcSt11char_traitsIcESaIcEEEEZ15stestHeapStringRjS8_EUlS6_E0_E9_M_invokeERKSt9_Any_dataS6_
FNDA:28,_ZNSt17_Function_handlerIFvRNSt7__cxx1112basic_stringIcSt11char_traitsIcESaIcEEEEZ15stestHeapStringRjS8_EUlS6_E_E9_M_invokeERKSt9_Any_dataS6_
FNDA:4,_ZNSt17_Function_handlerIFvRNSt7__cxx1112basic_stringIcSt11char_traitsIcESaIcEEEEZ15stestListStringRjS8_EUlS6_E_E9_M_invokeERKSt9_Any_dataS6_
FNDA:4,_ZNSt17_Function_handlerIFvRNSt7__cxx1112basic_stringIcSt11char_traitsIcESaIcEEEEZ17stestVectorStringRjS8_EUlS6_E0_E9_M_invokeERKSt9_Any_dataS6_
FNDA:4,_ZNSt17_Function_handlerIFvRNSt7__cxx1112basic_stringIcSt11char_traitsIcESaIcEEEEZ17stestVectorStringRjS8_EUlS6_E_E9_M_invokeERKSt9_Any_dataS6_
FNDA:0,_ZNSt17_Function_handlerIFvRNSt7__cxx1112basic_stringIcSt11char_traitsIcESaIcEEEEZN4lasd19DictionaryContainerIS5_E10InsertSomeEONS8_17MappableContainerIS5_EEEUlS6_E_E9_M_invokeERKSt9_Any_dataS6_
FNDA:0,_ZNSt17_Function_handlerIFvRNSt7__cxx1112basic_stringIcSt11char_traitsIcESaIcEEEEZN4lasd19DictionaryContainerIS5_E9InsertAllEONS8_17MappableContainerIS5_EEEUlS6_E_E9_M_invokeERKSt9_Any_dataS6_
FNDA:8,_ZNSt17_Function_handlerIFvRNSt7__cxx1112basic_stringIcSt11char_traitsIcESaIcEEEEZN4lasd4ListIS5_EC4EONS8_17MappableContainerIS5_EEEUlS6_E_E9_M_invokeERKSt9_Any_dataS6_
FNDA:5,_ZNSt17_Function_handlerIFvRNSt7__cxx1112basic_stringIcSt11char_traitsIcESaIcEEEEZN4lasd6SetLstIS5_EC4EONS8_17MappableContainerIS5_EEEUlRKS5_E_E9_M_invokeERKSt9_Any_dataS6_
FNDA:5,_ZNSt17_Function_handlerIFvRNSt7__cxx1112basic_stringIcSt11char_traitsIcESaIcEEEEZN4lasd6SetVecIS5_EC4EONS8_17MappableContainerIS5_EEEUlRKS5_E_E9_M_invokeERKSt9_Any_dataS6_
FNDA:18,_ZNSt17_Function_handlerIFvRNSt7__cxx1112basic_stringIcSt11char_traitsIcESaIcEEEEZN4lasd6VectorIS5_EC4EONS8_17MappableContainerIS5_EEEUlS6_E_E9_M_invokeERKSt9_Any_dataS6_
FNDA:0,_ZNSt17_Function_handlerIFvRdEZN4lasd19DictionaryContainerIdE10InsertSomeEONS2_17MappableContainerIdEEEUlS0_E_E9_M_invokeERKSt9_Any_dataS0_
FNDA:0,_ZNSt17_Function_handlerIFvRdEZN4lasd19DictionaryContainerIdE9InsertAllEONS2_17MappableContainerIdEEEUlS0_E_E9_M_invokeERKSt9_Any_dataS0_
FNDA:5,_ZNSt17_Function_handlerIFvRdEZN4lasd4ListIdEC4EONS2_17MappableContainerIdEEEUlS0_E_E9_M_invokeERKSt9_Any_dataS0_
FNDA:5,_ZNSt17_Function_handlerIFvRdEZN4lasd6SetLstIdEC4EONS2_17MappableContainerIdEEEUlRKdE_E9_M_invokeERKSt9_Any_dataS0_
FNDA:5,_ZNSt17_Function_handlerIFvRdEZN4lasd6SetVecIdEC4EONS2_17MappableContainerIdEEEUlRKdE_E9_M_invokeERKSt9_Any_dataS0_
FNDA:15,_ZNSt17_Function_handlerIFvRdEZN4lasd6VectorIdEC4EONS2_17MappableContainerIdEEEUlS0_E_E9_M_invokeERKSt9_Any_dataS0_
FNDA:124,_ZNSt17_Function_handlerIFvRiEPS1_E9_M_invokeERKSt9_Any_dataS0_
FNDA:5,_ZNSt17_Function_handlerIFvRiEZ16testFunzioniListvEUlS0_E0_E9_M_invokeERKSt9_Any_dataS0_
FNDA:5,_ZNSt17_Function_handlerIFvRiEZ16testFunzioniListvEUlS0_E_E9_M_invokeERKSt9_Any_dataS0_
FNDA:5,_ZNSt17_Function_handlerIFvRiEZ27testUlterioriFunzioniVectorIZ6mytestvEUlvE_EbT_EUlS0_E0_E9_M_invokeERKSt9_Any_dataS0_
FNDA:5,_ZNSt17_Function_handlerIFvRiEZ27testUlterioriFunzioniVectorIZ6mytestvEUlvE_EbT_EUlS0_E_E9_M_invokeERKSt9_Any_dataS0_
FNDA:0,_ZNSt17_Function_handlerIFvRiEZN4lasd19DictionaryContainerIiE10InsertSomeEONS2_17MappableContainerIiEEEUlS0_E_E9_M_invokeERKSt9_Any_dataS0_
FNDA:0,_ZNSt17_Function_handlerIFvRiEZN4lasd19DictionaryContainerIiE9InsertAllEONS2_17MappableContainerIiEEEUlS0_E_E9_M_invokeERKSt9_Any_dataS0_
FNDA:5,_ZNSt17_Function_handlerIFvRiEZN4lasd4ListIiEC4EONS2_17MappableContainerIiEEEUlS0_E_E9_M_invokeERKSt9_Any_dataS0_
FNDA:5,_ZNSt17_Function_handlerIFvRiEZN4lasd6SetLstIiEC4EONS2_17MappableContainerIiEEEUlRKiE_E9_M_invokeERKSt9_Any_dataS0_
FNDA:5,_ZNSt17_Function_handlerIFvRiEZN4lasd6SetVecIiEC4EONS2_17MappableContainerIiEEEUlRKiE_E9_M_invokeERKSt9_Any_dataS0_
FNDA:15,_ZNSt17_Function_handlerIFvRiEZN4lasd6VectorIiEC4EONS2_17MappableContainerIiEEEUlS0_E_E9_M_invokeERKSt9_Any_dataS0_
FNDA:157,_ZNSt8functionIFNSt7__cxx1112basic_stringIcSt11char_traitsIcESaIcEEERKS5_S7_EEC2ERKS9_
FNDA:28,_ZNSt8functionIFdRKdS1_EEC2ERKS3_
FNDA:144,_ZNSt8functionIFiRKiS1_EEC2ERKS3_
FNDA:170,_ZNSt8functionIFvRKNSt7__cxx1112basic_stringIcSt11char_traitsIcESaIcEEEEEC2ERKS9_
FNDA:136,_ZNSt8functionIFvRKdEEC2ERKS3_
FNDA:427,_ZNSt8functionIFvRKiEEC2ERKS3_
FNDA:19,_ZNSt8functionIFvRNSt7__cxx1112basic_stringIcSt11char_traitsIcESaIcEEEEEC2ERKS8_
FNDA:6,_ZNSt8functionIFvRdEEC2ERKS2_
FNDA:27,_ZNSt8functionIFvRiEEC2ERKS2_
FNDA:50,_ZNSt8functionIFvRKNSt7__cxx1112basic_stringIcSt11char_traitsIcESaIcEEEEEC2IZNK4lasd20TraversableContainerIS5_E6ExistsES7_EUlS7_E_vEEOT_
FNDA:40,_ZNSt8functionIFvRKNSt7__cxx1112basic_stringIcSt11char_traitsIcESaIcEEEEEC2IZNK4lasd28PreOrderTraversableContainerIS5_E12PreOrderFoldIS5_EET_S_IFSF_S7_RKSF_EESF_EUlS7_E_vEEOSF_
FNDA:32,_ZNSt8functionIFvRKNSt7__cxx1112basic_stringIcSt11char_traitsIcESaIcEEEEEC2IZNK4lasd29PostOrderTraversableContainerIS5_E13PostOrderFoldIS5_EET_S_IFSF_S7_RKSF_EESF_EUlS7_E_vEEOSF_
FNDA:4,_ZNSt8functionIFvRKdEEC2IZNK4lasd28PreOrderTraversableContainerIdE12PreOrderFoldIdEET_S_IFS9_S1_RKS9_EES9_EUlS1_E_vEEOS9_
FNDA:4,_ZNSt8functionIFvRKdEEC2IZNK4lasd29PostOrderTraversableContainerIdE13PostOrderFoldIdEET_S_IFS9_S1_RKS9_EES9_EUlS1_E_vEEOS9_
FNDA:33,_ZNSt8functionIFvRKiEEC2IZNK4lasd28PreOrderTraversableContainerIiE12PreOrderFoldIiEET_S_IFS9_S1_RKS9_EES9_EUlS1_E_vEEOS9_
FNDA:29,_ZNSt8functionIFvRKiEEC2IZNK4lasd29PostOrderTraversableContainerIiE13PostOrderFoldIiEET_S_IFS9_S1_RKS9_EES9_EUlS1_E_vEEOS9_
FNF:582
FNH:547
DA:86,900
DA:142,832
DA:152,1581
DA:158,305
DA:161,305
DA:162,305
DA:168,1572
DA:169,1572
DA:173,245
DA:175,490
DA:176,245
DA:180,358
DA:183,2896
DA:187,0
DA:191,0
DA:194,0
DA:195,0
DA:202,245
DA:203,245
DA:204,245
DA:206,358
DA:215,113
DA:216,1271
DA:243,2081
DA:244,2081
DA:245,0
DA:247,5860
DA:267,3422
DA:270,3422
DA:274,0
DA:275,0
DA:278,0
DA:279,0
DA:281,358
DA:282,358
DA:284,3422
DA:288,6017
DA:291,6017
DA:334,1930
DA:386,1114
DA:387,1114
DA:389,1114
DA:391,1114
DA:392,1114
DA:393,1114
DA:395,1114
DA:404,142
DA:405,142
DA:407,142
DA:409,142
DA:410,142
DA:411,142
DA:412,142
DA:435,1023
DA:437,859
DA:449,192
DA:451,1023
DA:452,1023
DA:454,192
DA:589,4604
DA:590,0
DA:591,4604
LF:62
LH:52
end_of_record
TN:
SF:/usr/include/c++/13/bits/stl_algobase.h
FNF:0
FNH:0
DA:238,269
DA:239,0
DA:262,20
DA:263,20
LF:4
LH:3
end_of_record
TN:
SF:/usr/include/c++/13/bits/stl_function.h
FNF:0
FNH:0
DA:457,31
LF:1
LH:1
end_of_record
TN:
SF:/usr/include/c++/13/bits/stl_iterator_base_funcs.h
FNF:0
FNH:0
DA:106,1496
LF:1
LH:1
end_of_record
TN:
SF:/usr/include/c++/13/bits/uniform_int_dist.h
FN:287,373,_ZNSt24uniform_int_distributionIiEclISt26linear_congruential_engineImLm16807ELm0ELm2147483647EEEEiRT_RKNS0_10param_typeE
FNDA:59,_ZNSt24uniform_int_distributionIiEclISt26linear_congruential_engineImLm16807ELm0ELm2147483647EEEEiRT_RKNS0_10param_typeE
FNF:1
FNH:1
DA:104,2
DA:106,1
DA:113,118
DA:117,59
DA:204,59
DA:287,59
DA:301,59
DA:302,59
DA:305,59
DA:309,59
DA:334,59
DA:335,59
DA:337,59
DA:338,59
DA:339,59
DA:342,0
DA:363,0
DA:364,0
DA:365,0
DA:367,0
DA:370,0
DA:372,59
LF:22
LH:16
end_of_record
TN:
SF:/usr/include/c++/13/ostream
FNF:0
FNH:0
DA:115,2948
DA:173,539
DA:177,65
DA:198,2980
DA:223,824
DA:667,7328
LF:6
LH:6
end_of_record
